2133	a cut above	figuratively	Home Schools & Research Schools Engineering About Us Survival Guide to choosing a good School Survival Guide to choosing a good School Choosing a highly respected Engineering School is the key to making yourself employable . Therefore it is vital that you know what makes an Engineering School ' <b>a</b> <b>cut</b> <b>above</b> the rest. ' What are the key points to look out for , when choosing an Engineering School ? There are some simple rules to follow when choosing which Engineering School to study .
50617	a cut above	figuratively	And these users are not so much users as first line support . Now , if you 've never worked anywhere where there 's an IT department that provides first-line troubleshooting and support , you wo n't know that these people í‰äóñ they man the helpdesks í‰äóñ are supposed to be <b>a</b> <b>cut</b> <b>above</b> your average clerk or salesman . Unlike the users , whose job it is to either clerk , or sell or whatever , these support folks are supposed to actually know about the computers it is their job to maintain .
83681	a cut above	figuratively	It 's 1805 and " Lucky " Jack Aubrey is captain of the HMS Surprise , on the trail of a French privateer which has been harrying English shipping . This could have been just a swashbuckler but it 's <b>a</b> <b>cut</b> <b>above</b> that - a believable story told in a compelling way . Russell Crowe and David Threlfall lead a brilliant mostly British cast .
124447	a cut above	figuratively	51368 2001 Cí€ŒÇtes-du-Rhí€ŒÇne Rouge , Hand-Picked í‰Œ£ 58.80* Just as versatile as the Vin de Pays but with more fruit concentration . Spicier and more ' curranty'. it is certainly <b>a</b> <b>cut</b> <b>above</b> the ' norm ' for a red Cí€ŒÇtes-du-Rhí€ŒÇne . Again great value .
162555	a cut above	figuratively	He has a number of shady " sidelines " which often attract the attention of the local police , though they can rarely pin anything on him . Boycie thinks of himself as " <b>a</b> <b>cut</b> <b>above</b> " his friends and acquaintances . After all , he has a successful business , plenty of money and a detached mock-Georgian house .
24352	a cut below	literally	The truth is somewhat less terrible than an entire bath full of blood , as Italy 's Daniele De Rossi gives USA'S Brian McBride an elbow-shaped weapon of mass destruction right in the face . Looking at the shot of the American 's face í‰äóñ streaming with blood from <b>a</b> <b>cut</b> <b>below</b> his left eye í‰äóñ we imagine that some blood might well have dripped into the Americans ' post-match bath . But fill it ?
26009	a cut below	literally	I was hoping it would be pretty even paced and it was , so I 'm quite happy about that . " Tullett , of Wales , who finished fourth in the European Cup last year in the event and seventh at the European Indoor Championships over 3,000m , suffered <b>a</b> <b>cut</b> <b>below</b> the knee courtesy of another runner 's spikes . " I expected it to be a bit rough , heats are always messy because they tend to be very tactical and not particularly fast , " the 27-year-old said .
63446	a cut below	literally	If there are particular problems with your chest or heart , your surgeon may decide to avoid a cut in your abdomen . In this case you will have <b>a</b> <b>cut</b> <b>below</b> one of your collar bones , and a vertical cut in each groin . An artificial blood vessel made of plastic shaped like an upside down Y will be tunnelled under the skin between these incisions and will be attached to the main blood vessel supplying one arm and to the main blood vessel supplying each leg , ( axillobifemoral graft ) .
151527	a cut below	literally	Partly cut out but left attached to its original blood supply . A flap taken from between the shoulder blades is ' threaded ' through <b>a</b> <b>cut</b> <b>below</b> the armpit and pulled into place in the chest , while a flap from the abdomen is ' threaded ' under the skin over the stomach , and into the chest . A tissue flap operation for breast reconstruction can take up to eight hours .
154481	a cut below	literally	You also have to draw a straight line , parallel to the old AB , from the slot to the other side of the sundial . Make <b>a</b> <b>cut</b> <b>below</b> the slot so you will get a flap to fold up . 17 .
29057	a notch above	figuratively	Taken in isolation , that represents some clever design . Inside , as you might expect , it 's all beautifully screwed together and in terms of actual rather than perceived quality is <b>a</b> <b>notch</b> <b>above</b> the class average . The metallic dashboard finish lifts the already bright cabin and the equipment count is beyond reproach .
39335	a notch above	figuratively	Her opponent today was local wild card , Sharon Wee . The Dutch lass is just <b>a</b> <b>notch</b> <b>above</b> Wee , who was always behind and also the one made to work hard . Atkinson 's great lengths and pace killed off the Malaysian 's momentum , never allowing her to play her own game .
62618	a notch above	figuratively	" Ride and handling are decidedly sporty , with the expensive-looking double-wishbone front suspension giving the 147 tremendous grip . In terms of driving fun it is <b>a</b> <b>notch</b> <b>above</b> the likes of the Ford Focus and Vauxhall Astra ( and for drivers of these cars , the 147 will surely be seen as attainable . "
105726	a notch above	figuratively	The extra performance needing the driver to command it , the car did n't volunteer it . When you did command it , the performance showed how well it could move a 1750kg car with three people aboard to speeds clearly <b>a</b> <b>notch</b> <b>above</b> the standard 260 . It was also clear how the upper rpm area had become far more urgent than standard and it was there where the extra performance lay in spades .
163077	a notch above	figuratively	The acting in the ADV dub is superb , with none of the characters sounding out-of place or wooden ( something of a rarity í‰äóñ for a long time there was always at least one below-par actor in any dub ) . Christine Auten 's performance as Elvy Hadhiyat ( especially when drunk ) and Chris Patton 's Ayato Kamina ( <b>a</b> <b>notch</b> <b>above</b> his performance in FullMetal Panic ! ) are particularly outstanding .
1736	a piece of cake	figuratively	What you are certainly going to find in these chapters is a very high level of field specific lexis . You may be lucky and already attend Rugby school , in which case all the references to í‰äóÖBlacks ' ( nicknames ) , calling-over ' ( taking the register and í‰äóÖfives courts ' will be <b>a</b> <b>piece</b> <b>of</b> <b>cake</b> and perfectly understandable . They may , indeed , form part of your own school 's lexis , if you go to one of the other public schools in the country . 
4026	a piece of cake	figuratively	and enjoy the sense of being part of it all ! We have to learn to take what you 're told with <b>a</b> <b>piece</b> <b>of</b> <b>cake</b> ! It 's by no means unusual for a program to imply that it can do a given something ( such a read another file type ) only to find it ca n't . 
5731	a piece of cake	figuratively	Using the pole in rests is often preferred by pleasure anglers , rather than holding . Makes fishing and feeding long all day <b>a</b> <b>piece</b> <b>of</b> <b>cake</b> . Recommended by Roy Marlow and Bob Nudd . 
6190	a piece of cake	figuratively	For a start , I 'd point out that we lived together at University ; and therefore any kind of impropriety that you fear could have occurred , probably did . And anyway , with the times that we live in , marriage is <b>a</b> <b>piece</b> <b>of</b> <b>cake</b> to walk out on . I could get a divorce in a shot with fairly minimal effort . 
8518	a piece of cake	figuratively	Introduction " Interoperability is easy . It 's <b>a</b> <b>piece</b> <b>of</b> <b>cake</b> . Simply digitise ( or create in digital form ) a load of content and stick it on a web site . 
13544	a piece of cake	figuratively	FEAR ! And those who learn to overcome that fear , and walk in the Light of Love and Unity with The Creatorí‰äóîshootí‰äóîthis will be <b>a</b> <b>piece</b> <b>of</b> <b>cake</b> . It will be like walking through a cloud instead of hitting a mountain . 
22080	a piece of cake	figuratively	A gimme . <b>A</b> <b>piece</b> <b>of</b> <b>cake</b> . Must be since Google Adwords are crammed with all sorts of beckoning , come hither ads that suggest as much . 
23283	a piece of cake	figuratively	Dad and I knew when to run and we did - Dad clutching the sack containing the yowling Tiger Tom . Getting home was all <b>a</b> <b>piece</b> <b>of</b> <b>cake</b> after that and for days Dad bragged about his catnapping episode . And Mr. O'Malley . 
25116	a piece of cake	figuratively	According to Reese Witherspoon , playing a transplanted Alabama fashion designer in New York City in the new movie Sweet Home Alabama was <b>a</b> <b>piece</b> <b>of</b> <b>cake</b> . Reese knows exactly what that experience is all about , being a down home Tennessee girl who had to acclimate herself to the wild ways of Hollywood . 
25159	a piece of cake	figuratively	So , how are you doing in your battle with Satan and his schemes ? If it 's <b>a</b> <b>piece</b> <b>of</b> <b>cake</b> , something is wrong ; something needs to be examined more carefully . If there is no sense of battle , a warning light better be flashing in your soul somewhere . 
36839	a piece of cake	figuratively	Aside that , the E370 is a great phone , I 've had it a few months now and really ca n't find any major problems with it . The texting is very simple ; a bit confusing if you 've sworn by nokia for predictive text simply because the buttons are in the wrong place , but once you 've figured out the differences it 's <b>a</b> <b>piece</b> <b>of</b> <b>cake</b> . Would definately recommend it ! 
41126	a piece of cake	figuratively	This mode of working may be a shock to the system and the independent work you do this term may require more self-reliance than many of the things you will do in Honours , but we believe you 're up to it . At the very least , this intensive program should turn the Class Test into <b>a</b> <b>piece</b> <b>of</b> <b>cake</b> ! At best , however , you will make your own contribution to our understanding of how language works . 
41173	a piece of cake	figuratively	They can then be " educated " into a more " realistic " position . The so-called " realists " , meanwhile , are seen as <b>a</b> <b>piece</b> <b>of</b> <b>cake</b> . They should " always receive the highest priority in any strategy dealing with a public policy issue . 
41309	a piece of cake	figuratively	Remember big property owners such as shopping center owners have a lot of political clout . Getting a county supervisor or city council member to recommend them for an award , proclamation or certificate of appreciation is <b>a</b> <b>piece</b> <b>of</b> <b>cake</b> . It also makes the property management company look good . 
41556	a piece of cake	figuratively	Monkey Mia is world renowned for the visiting dolphins which interact with humans , but our main purpose visiting this place was to find the Thick&#8209;billed Grasswren . It turned out to be <b>a</b> <b>piece</b> <b>of</b> <b>cake</b> . When we arrived at the car park a Thick&#8209;billed Grasswren was hopping under the bushes and we got great views of this bird . 
42746	a piece of cake	figuratively	I could never make head or tail of parsing in English . Doing it in Latin was <b>a</b> <b>piece</b> <b>of</b> <b>cake</b> . The reason was , I think , that the language was so alien . 
46150	a piece of cake	figuratively	Look at all the attempts to create the perfect header/three column/footer layout with the columns all the same size . Simple...you would have thought so , <b>a</b> <b>piece</b> <b>of</b> <b>cake</b> for tables , so why not for divs . Perhaps we are looking at layouts to copy tables , when we should be looking at layouts to do things that tables ca n't do . 
53423	a piece of cake	figuratively	Ever tried to find that paint stripper in the mountain of ' tials ' ( tidy it away later ) that dominates your garage . It can be a tricky task to find just about anything you really need in the average garage and <b>a</b> <b>piece</b> <b>of</b> <b>cake</b> to find all manner of useless junk . This was exactly our problem and we decided that if a job was worth doing ... ... . 
54066	a piece of cake	figuratively	We 'll be looking at the full system , which unlike the stripped back ' Core ' system , comes with HDTV capability and mass storage right out of the box , as well a single wireless controller instead of a wired one . Setup Physically setting up the console was <b>a</b> <b>piece</b> <b>of</b> <b>cake</b> . The only major difference between the Xbox 360 and its predecessor is that the 360 has an external 90V power supply that can be located a couple of feet from the main unit . 
54509	a piece of cake	figuratively	From Anthony : Madrid , Spain Thank you so much for your service . It was <b>a</b> <b>piece</b> <b>of</b> <b>cake</b> to use and we are very happy ! We will be back for sure ! 
58009	a piece of cake	figuratively	I lasted a week . I thought that this resolution would be a lot more realistic and should be <b>a</b> <b>piece</b> <b>of</b> <b>cake</b> to achieve -- off the pill , some sex and Bob 's your uncle . It was high time I had a baby . 
61548	a piece of cake	figuratively	That could get a bit tedious . And as for marking progress , a GPS on your handlebars would make it <b>a</b> <b>piece</b> <b>of</b> <b>cake</b> . I 'd recommend the Garmin GPS V - small , does n't eat batteries every five minutes and does n't speak ! 
61766	a piece of cake	figuratively	Even when we hit problems theres alway away around it And what a ( good ) builder ( believe it or not ) does not like doing is facing a client and telling them that because of the problem It is going to cost more or we have been delayed or one of the trades has not turned up . The building works are <b>a</b> <b>piece</b> <b>of</b> <b>cake</b> . But dealing with clients , BCO's(and other trades sometimes)who are not clued in , well that 's a pain in the A*se . 
62908	a piece of cake	figuratively	He never stood a chance . They say vampires are hard to kill , but when you 're half a ton of muscle , tooth and claw , it 's <b>a</b> <b>piece</b> <b>of</b> <b>cake</b> . Just to be sure , I tore his body into fragments before settling down to eat . 
64355	a piece of cake	figuratively	The course had been changed slightly and it brought into play a ditch that had to be crossed on three occasions . It made any mud or ditch on Stafford Common look <b>a</b> <b>piece</b> <b>of</b> <b>cake</b> . Craig Anderton got back to his usual form and had a great battle moving from eleventh to seventh in the last lap , with a great final push in the last field finally killing off the challenge from two of his nearest rivals . 
64919	a piece of cake	figuratively	. RSS Feed Helper Class by James Crowley A simple helper class to make generating an RSS feed <b>a</b> <b>piece</b> <b>of</b> <b>cake</b> - its the one we use on Developer Fusion too ! . 
71150	a piece of cake	figuratively	" - Donnell W. , IL " [ Downloading was ] no problem at all . <b>A</b> <b>piece</b> <b>of</b> <b>cake</b> , really . " - Don M. , WA FANTASTIC PLACES ! 
75289	a piece of cake	figuratively	When Adobe has downloaded , follow the instructions on screen . This may sound a bit complicated but it is actually very easy í‰äó_ <b>a</b> <b>piece</b> <b>of</b> <b>cake</b> ! When you have Adobe Acrobat you can download any PDF file from the Internet . 
83054	a piece of cake	figuratively	The cork gasket supplied with the fillers should also be discarded and the fuel funnel sits inside the cut-out ( not under as we had thought ) . So we moved on to some other parts namely the battery clamp and the horn , surely these would be <b>a</b> <b>piece</b> <b>of</b> <b>cake</b> . Luckily they were and really there 's little to tell as the pictures probably tell all you need to know . 
83094	a piece of cake	figuratively	A few days after the fall of Jericho , Joshua sent out spies to Ai . The spies came back and said it 's <b>a</b> <b>piece</b> <b>of</b> <b>cake</b> , not much to it . All we need is about 2000 or 3000 men , not the whole army . 
84231	a piece of cake	figuratively	In the ladies race , Bingley 's Natalie White came home in first in 52:12 just over four minutes outside Scotland 's Angela Mudge 's 2003 record . The first Northern Ireland lady was Shileen O'Kane in 11 th overall , only a few months after having her second baby í‰äóñ hill running seems like <b>a</b> <b>piece</b> <b>of</b> <b>cake</b> compared to that . In all , a record of 36 ladies completed the race . 
91373	a piece of cake	figuratively	You have just given a brilliant demonstration of your amazing TK ability by leaving the room and keeping the psi wheel spinning from outside the house , and sending your TK through a glass window into the bargain . Sitting next to it when it 's covered by glass should be <b>a</b> <b>piece</b> <b>of</b> <b>cake</b> , if you had TK of course . If not then you have clearly demonstrated that it is air currents and not TK moving the psi wheel . 
92734	a piece of cake	figuratively	We 'll now have news snippets , and an easier method of submitting your site for listing . It 'll be <b>a</b> <b>piece</b> <b>of</b> <b>cake</b> to browse designs by views , clicks , type , colour scheme and more and we 'll have a wider array of RSS feeds to keep you up to date . It 's almost ready to go , with some graphics courtesy of Veerle who has been really helpful . 
93878	a piece of cake	figuratively	YOUUUUUUU . After teaching and practicing the five letters , the consonants are much <b>a</b> <b>piece</b> <b>of</b> <b>cake</b> . I teach the whole alphabet with songs , I use BINGO , or TIC-TAC-TOE , HANGMAN , Spelling Bee and MASTERMIND Margaret Rafferty , USA/China I got the students to play a version of Bingo with the letters of the alphabet . 
97223	a piece of cake	figuratively	This is from inside looking across the site of the former drawbridge . Its a cold January day and these lads are about to tackle the stepping stones which in summer , are <b>a</b> <b>piece</b> <b>of</b> <b>cake</b> 
97585	a piece of cake	figuratively	Because Uefa Cup games are played on Thursdays , Leeds often play catch-up in the Premiership on a Sunday . But after dispatching Maritimo da Madeira four days ago , they found Ipswich were not such <b>a</b> <b>piece</b> <b>of</b> <b>cake</b> . Read the rest ... Kewell the key as laboured Leeds recapture top spot - Graham Snowdon Copy from The Independent of 30/09/2001 . 
99639	a piece of cake	figuratively	There 's even a space for your CD or MP3 player and up to 12 CDs . Step-up is <b>a</b> <b>piece</b> <b>of</b> <b>cake</b> ; a particularly enjoyable gooey chocolate piece . To begin , open the case and attach the inflatable headrest . 
99948	a piece of cake	figuratively	Everyone had a mostly sunny day with excellent views until about tea-time when back came the rain . By now our brave team of 4 were descending A ' Mhaighdean direct by Roger 's Route ( described as ' <b>a</b> <b>piece</b> <b>of</b> <b>cake</b> ' by the leader , although there seemed to be some debate about that ) in an attempt to reach a suitable camping place near Carn More as quickly as possible in the deteriorating conditions . Meanwhile the group of 2 camped near Beallach Mheinnidh . 
102900	a piece of cake	figuratively	" I did the Atkins diet for six months . If you can do that , this is <b>a</b> <b>piece</b> <b>of</b> <b>cake</b> ! " Faced with the demands a full-time career , a wife and eight pets , Justin often finds himself pressed for time . 
103791	a piece of cake	figuratively	This is perhaps one of the best features of XY-pic , the ability to place mathematical labels anywhere in the diagram . Once you have gotten this down drawing lines is <b>a</b> <b>piece</b> <b>of</b> <b>cake</b> using the \dir command. \[ \xy ( 0,0)*{ } ; ( 10,0)*{ } **\dir{- } ; \endxy \ ] The **\dir{- } command is one that I use constantly . Supposing you would prefer to have a dotted line all you have to do is type **\dir{. } instead . 
104643	a piece of cake	figuratively	People get heart attacks and come back . They are n't unable to walk , think right , able to use their arms and hands etc. Not that having a heart attack is <b>a</b> <b>piece</b> <b>of</b> <b>cake</b> but with a stroke , the chance of one becoming EXACTLY as they were before is slight if any . ( Now I said exactly - 100 % ) It 's really a case to try to get back as much as you can and then accepting that . 
112392	a piece of cake	figuratively	I 've used Macs that were multi-headed . That was <b>a</b> <b>piece</b> <b>of</b> <b>cake</b> to configure . I also noticed that Win '98 has this feature available --- so it might become much more common in the next year or so . 
116261	a piece of cake	figuratively	All on a tiny UMD disc and played in the palm of your hand . Not exactly <b>a</b> <b>piece</b> <b>of</b> <b>cake</b> . Amazingly though , Liberty City Stories is looking like it might meet the hype head-on . 
121781	a piece of cake	figuratively	Reel Deals latest addition to their exclusive range is the one-man bivvy . It 's compact , ultra light and <b>a</b> <b>piece</b> <b>of</b> <b>cake</b> to erect . Waterproof 190T material , one of the best is used all over . 
128029	a piece of cake	figuratively	If you can find a scrapper somewhere then you are onto a winner . They have grooves , holes and various mounting options which makes fitting it to your kit <b>a</b> <b>piece</b> <b>of</b> <b>cake</b> . Takes the pressure too I also had a quote for a canister made new by a pneumatics manufacturer - í‰Œ£ 111 for an 80mm bore x 275mm long cylinder barrel and 2 end caps with the ports blanked off . 
132768	a piece of cake	figuratively	I was advised against an original as a ) the leather seals are likely to have perished and b ) the new ones are more efficient . Fitting the servo in theory is <b>a</b> <b>piece</b> <b>of</b> <b>cake</b> . However , the mounting brackets supplied I 'm sure were n't designed with the Healey in mind . 
143217	a piece of cake	figuratively	With two hours of flying time and nine hours of airport time I arrived at Perpignon at six p.m. and the first camp 12kms to go . This is <b>a</b> <b>piece</b> <b>of</b> <b>cake</b> I thought , 12kms. is only 7.5miles . What I had n't banked on was kms.are one thing , but metres are quite another ! 
143861	a piece of cake	figuratively	Service & support Setting up the Dell 3100cn does n't require the manual to be opened at all . The step-by-step setup poster makes installing toner , connecting to a computer or a network , and configuring software drivers <b>a</b> <b>piece</b> <b>of</b> <b>cake</b> . The Dell 3100cn provides an industry-standard one-year warranty , but Dell boosts this with a generous next-day onsite-service offering . 
145700	a piece of cake	figuratively	Then , you know , you have the next one and the next one , and each time it gets easier and easier because you kind of know what to expect . And then you get to the last one and it 's really <b>a</b> <b>piece</b> <b>of</b> <b>cake</b> . You 've been through there so many times that the last one gets spoiled , because it 's the last one and it 's going away and all that sort of stuff . 
146566	a piece of cake	figuratively	The file transfer protocol used are normally FTP , HTTP or SMTP . Have a look at our Freestuff page and have a go at downloading some free files - an automatic process - it 's <b>a</b> <b>piece</b> <b>of</b> <b>cake</b> ! 
146609	a piece of cake	figuratively	Roger is an air traffic controller , but when you 're the dad of kids like Kenan and Kyra , directing jumbo jets all day seems like <b>a</b> <b>piece</b> <b>of</b> <b>cake</b> ! Mr Rockmore can be a bit of a grump sometimes , but he actually has no idea how to deal with his kids - and especially not that crazy Kel who keeps dropping in for dinner ! 
146895	a piece of cake	figuratively	Ultimately I would love to get paid to go on tour with the bands and make their live DVDs , but until then I am content with what I do . How physically or mentally demanding is the job : It was stressful to tape these shows at first , but now I have taped so many shows that it is <b>a</b> <b>piece</b> <b>of</b> <b>cake</b> . The only time stress comes into play is when I do not have someone to help me start all the cameras . 
149033	a piece of cake	figuratively	The singing of the song also often happens at a restaurant when one gets taken out for their birthday . The server or servers in the restaurant may lead the singing of the song while dessert is delivered to the table ( which may or may not be <b>a</b> <b>piece</b> <b>of</b> <b>cake</b> , and may or may not be complimentary ) . The dessert may feature a sparkler instead of a candle . 
149747	a piece of cake	figuratively	As they told me , I realised that it was only a few yards to the door where the game was being played live on TV . I then left , to more funny looks , and knowing it was going to be <b>a</b> <b>piece</b> <b>of</b> <b>cake</b> getting past Steptoe and Son , headed back to the car . Once there I told Sean that it would n't be a problem and that I would be back in five minutes . 
165507	a piece of cake	figuratively	All the companies I 've bought , the City hated . But the customer perception was totally different ... If the product is right and there 's a market for the product , if you believe in those things , the rest is <b>a</b> <b>piece</b> <b>of</b> <b>cake</b> . " It 's not , of course . 
13460	a piece of cake	literally	Malik Bhago met Nanak at the door. í‰äóìWhy did you refuse to come to my feats?í‰äó Malik Bhago asked. í‰äóìI had rich cake for you to eat but your preferred to eat course breadí‰äó . Guru Nanak asked for <b>a</b> <b>piece</b> <b>of</b> <b>cake</b> and took from his bag a piece of coarse bread which had been given to him at Lalo 's house . He squeezed them both . 
14212	a piece of cake	literally	You can come up if you want . You can have a cup of tea and <b>a</b> <b>piece</b> <b>of</b> <b>cake</b> . You can share my platform if you want ( helps dragon onto platform ). Hello , hello , hello , why are you crying ? 
34685	a piece of cake	literally	Breakfast a good fry up - egg , bacon , fried bread , porridge in winter , cereals in summer . Take <b>a</b> <b>piece</b> <b>of</b> <b>cake</b> , then come home midday . No school meals . 
39880	a piece of cake	literally	In the Roman era , sweet cakes were thought to bring fertility , wealth and happiness . Feeding each other <b>a</b> <b>piece</b> <b>of</b> <b>cake</b> is a symbol of love , honour and respect and guests sharing in the same cake hope to share in the good fortune of the bridal couple who were believed to be lucky . Why do bride 's carry bouquets ? 
50773	a piece of cake	literally	Evening Meal í‰Œ£ 22.50 Snack Pack í‰Œ£ 7 Lunch to take out with you on your travels : Sandwiches with choice of fillings in homemade bread ; mushroom pate , houmous , avocado , bean pate , salad . Fresh fruit , nuts , carton of juice , muffin or <b>a</b> <b>piece</b> <b>of</b> <b>cake</b> Viva ! , Vegan , Vegetarian & Animal Aid Supporters Discount Scheme 5 % discount We ask all our guests to vacate their rooms by 10:00am and return after 4:00pm . 
79755	a piece of cake	literally	' I ask her grave . Find out , I suppose , that dad sleeps in his shirt and Mam in his old pyjama jacket , find out that most meals end with <b>a</b> <b>piece</b> <b>of</b> <b>cake</b> , find out Mam keeps her teeth in a cup without a handle and Dad does n't keep his in anything at all . Such creatures are not fit for polite society . 
102307	a piece of cake	literally	Have a snack though not salty ones as they will make you thirsty . Have <b>a</b> <b>piece</b> <b>of</b> <b>cake</b> . Get a take away , a bag of chips , or a pizza . 
104985	a piece of cake	literally	This cake may be decorated for special occasions in the traditional way using marzipan and fondant or royal icing . For birthdays , anniversaries etc , there is no reason why a person with diabetes should not enjoy <b>a</b> <b>piece</b> <b>of</b> <b>cake</b> along with everyone else . 
105650	a piece of cake	literally	Here we disembark . After the exhilarating ride , we are able to calm down with a cup of tea and <b>a</b> <b>piece</b> <b>of</b> <b>cake</b> . As I am wearing two shirts , Christine is able to change out of her wet T-shirts into one of mine . 
117806	a piece of cake	literally	At most hostels , small chores were allocated to be completed before leaving , depending on visitor numbers , usually washing up and cleaning , including toilets , chopping wood and bringing in the coal , or preparing vegetables . The meals at teatime were adequate and spartan packed lunches could usually be purchased , mostly two sandwiches , <b>a</b> <b>piece</b> <b>of</b> <b>cake</b> or fruit and a tin of orangeade . It was the first time I had encountered brown sugar sandwiches . 
119822	a piece of cake	literally	showing them side by side with their hair full of shampoo . Arthur 's nose turns up as Arthur sniffs <b>a</b> <b>piece</b> <b>of</b> <b>cake</b> . Agnes 's nose turns down . 
141754	a piece of cake	literally	All present and the tents started to go up . Soon Andy was calling everyone for a hot drink and <b>a</b> <b>piece</b> <b>of</b> <b>cake</b> . The team , Ali ( Miss Moneypenny ) . 
148418	a piece of cake	literally	' Calum , ' she said , interrupting the floor-sweeper . ' Would you mind making a cup of coffee and fetching <b>a</b> <b>piece</b> <b>of</b> <b>cake</b> ? ' He did n't mind . 
148859	a piece of cake	literally	The stage of development that you witness depends on the date that you travel . With so much to watch and see , it may be several hours before you slip into West Point farmhouse to have a cuppa and <b>a</b> <b>piece</b> <b>of</b> <b>cake</b> . Your hosts are the owners of this private island paradise . 
158747	a piece of cake	literally	On the morning of Thursday the father took a keen-cutting knife and cut the cake into as many sections as there were children in the family , all the sections being equal . All the pieces were then placed in a ' ciosan ' - a beehive basket - and each child blindfold drew <b>a</b> <b>piece</b> <b>of</b> <b>cake</b> from the basket in name of the Father , Son , and Spirit . The child who got the coin got the crop of lambs for the year . 
161860	a piece of cake	literally	Whichever style of cake you choose make sure that you taste some on the day . Many couples find that they are too excited to eat very much at their own wedding reception so remember to keep <b>a</b> <b>piece</b> <b>of</b> <b>cake</b> for yourselves . Making your own cake " If you bake your own wedding cake you 'll work hard all your married life . 
164252	a piece of cake	literally	In fact he made his point in a very dramatic way . On Yom Kippur morning , immediately after the shacharis services , he went up to the bimah , made kiddush , drank the wine , and ate <b>a</b> <b>piece</b> <b>of</b> <b>cake</b> ! Immediately , the townsfolk were relieved . 
7699	across the board	figuratively	Now that we can provide line rental as well as calls , customers receive just the one bill detailing both sets of charges which is payable monthly rather than quarterly in advance . Finally , using the same service provider for call tariffs and line rental means one point of contact for all telephony queries and allows you to benefit from the same high quality service <b>across</b> <b>the</b> <b>board</b> .
10112	across the board	figuratively	Specialist schools are part of a mass movement to raise standards . " The individual ethos and specialism of a school is vital , as schools build a centre of excellence , and use that specialist excellence and ethos to raise standards <b>across</b> <b>the</b> <b>board</b> . The Leading Edge Programme takes the process a stage further .
12830	across the board	figuratively	Case studies examine how different institutions have planned and implemented their communications strategy . In addition , the course will demonstrate how skilled communication can help maximise the credibility and effectiveness of policy <b>across</b> <b>the</b> <b>board</b> . A central bank 's core mandate of ensuring price and systemic stability can only be achieved by communicating its actions , and the reasons behind them , in a clear and predictable fashion .
95323	across the board	figuratively	It seemed unlikely they would return to the giddy peaks that we saw early in the year any time soon , but for a while at least , things were distinctly looking up . August is normally a fallow time for the market , but activity increased <b>across</b> <b>the</b> <b>board</b> , with weekly spot rates in all sectors on a steady rise throughout the month . By the end of August , rates were up more than 30 per cent .
97505	across the board	figuratively	But Mr Glendinning expects that consumers will soon have to pay for any 0 per cent transfer deals longer than six months . He also cautions that fees could be levied <b>across</b> <b>the</b> <b>board</b> in the future . " If you have an expensive card and have yet to switch to a 0 per cent deal , do it now .
110207	across the board	figuratively	Such is the case with Contact a Family . Although the particular focus for Contact a Family is handicapped children , their experiences and their principles of practice when establishing and supporting self-help groups are undoubtedly relevant <b>across</b> <b>the</b> <b>board</b> . Against the background of a very limited body of knowledge concerning the development and practice of self-help groups , this booklet sets out to do two things .
148327	across the board	figuratively	It would have made no difference on the inside , but certain people were inside being esteemed . Organisations and people <b>across</b> <b>the</b> <b>board</b> should realise that the WTO is an organisation set up to protect and promote the interests of the rich countries and the corporations they represent . And ' Yes ' , the deal is a disaster because so many of the people that were directly concerned are going to take a hammering if the WTO actually gets it 's way .
158299	across the board	figuratively	So that 's where we are , we are about to make our final decision based on the public consultation discussion that we 've had , it 's not a passive process . Matt One broad piece of context which I think would help , this is really a policy issue Paul , this is standard <b>across</b> <b>the</b> <b>board</b> . When a consultation closes we go into a decision making and analysis phase .
7532	all the rage	figuratively	( This was an aeon before AIDS , mind you. ) Foolishly , I sought solace in 500 milligrams of d-lysergic acid . After dropping it , I listened repeatedly to a new stereo record that was <b>all</b> <b>the</b> <b>rage</b> at the time . 1 can still hear the retrain of one song : ' Boy , you 're gonna carry that weight , carry that weight , a long time... ' McCartney was right , too : I did .
20218	all the rage	figuratively	Tom Verlaine The Miller 's Tale Source : Chicago Reader December 6 , 1996 By Monica Kendrick Scenes - dramatic , romantic ejaculations of zeitgeist - have been <b>all</b> <b>the</b> <b>rage</b> ever since Sir Thomas Malory decided that King Arthur 's court might have been a really cool place to hang out . There are those who dream of smoking opium with Byron and of being there when Mary Shelley wrote Frankenstein on a dare , of jouncing along in that big ol ' beater down Route 66 with Jack and Neal .
31072	all the rage	figuratively	It was in fact when these industries declined and moved out that suddenly the powers that be decided to do something about the one industry that it had left to fend for itself until then , that being tourism . Yes suddenly it was <b>all</b> <b>the</b> <b>rage</b> to come and see those things we locals took for granted , the history that was all around us . George Hudson was at one time the Lord Mayor of York .
43041	all the rage	figuratively	But are today 's women enduring a range of procedures like plastic surgery , chemical peels , and Botox far beyond the bounds of their predecessors ? Botox has become <b>all</b> <b>the</b> <b>rage</b> because of its ability to smooth out some wrinkles . Nevertheless , Botox has recently come under question because of concerns about its toxicity .
44462	all the rage	figuratively	As Milton Keynes has a high rate of council tax anyway the only thing for certain is that you will pay more even it is for less . Going Private Top PFI is now <b>all</b> <b>the</b> <b>rage</b> . For handing over the old Hospital to developers a newer usually smaller building is built .
85841	all the rage	figuratively	Do you like to waste time ? Our " Great Links " are interesting web places we 've found : 25 November 2006 Extravagant toys for spoiled rich kids These toys are <b>all</b> <b>the</b> <b>rage</b> - among children of the obscenely wealthy . Speaking of the children of the obscenely wealthy : The Trash Princess , Why Americans love to hate Paris Hilton .
95813	all the rage	figuratively	The FSB was in favour of a sensible minimum wage when it was introduced , but record rises are beginning to affect members outside London and the south-east as well as those running businesses in the catering and hospitality industries . 3. Blogging 's <b>all</b> <b>the</b> <b>rage</b> Another week , another story about small business blogging . This time it was the Mail on Sunday who covered the cutting edge small companies turning to new technologies to boost sales .
111580	all the rage	figuratively	The cover did not need to state that the record was by the Beatles . Furthermore , its black and white stood out at a time when colour was becoming <b>all</b> <b>the</b> <b>rage</b> . The album starts with George 's tirade against the Inland Revenue with Taxman .
123319	all the rage	figuratively	None of this cold turkey stuff . I 've been told that plastic nipples are <b>all</b> <b>the</b> <b>rage</b> . " " They taste like sparrow droppings .
130890	all the rage	figuratively	Although I love where I am now I really want to grow up with a family thats mine , that I can love . The other cats do laugh at me sometimes as I have little a little black moustache and goatee beard that I hear is <b>all</b> <b>the</b> <b>rage</b> ! I love a cuddle , and am very playful like a good kitten should be , and I do n't mind adults , children or other cats .
53653	anything go	literally	Where there is no British representative in a country , British nationals may instead contact the nearest EU Mission in that country . The first thing you should do if <b>anything</b> <b>goes</b> wrong is to contact your relatives and friends at home . They can then take appropriate action within the UK .
132117	anything go	literally	What are extended warranties ? Also known as service agreements , extended warranties usually pay for any repairs to your appliance - washing machine , television , fridge , etc - or replace it , if <b>anything</b> <b>goes</b> wrong in a specified period . This normally begins after the manufacturer 's guarantee finishes .
134432	anything go	literally	However , circulation is strictly controlled and you may like to have a personal copy delivered direct to your home . By taking out a personal subscription to SecEd you can be sure that you will not miss out on <b>anything</b> <b>going</b> on in secondary education . A UK annual subscription to SecEd ( 44 issues ) costs í‰Œ£ 40 by direct debit or í‰Œ£ 44 by cheque/credit/debit card ( í‰Œ£ 35 for students ) .
155219	anything go	literally	Front and back doors and all windows should be secure and sturdy , for both security and protection from the weather . Structural repairs are the landlord 's responsibility , but if <b>anything</b> <b>goes</b> wrong you 'll have the inconvenience to put up with ! Inside the property Check what exactly will be in the house when you move in .
12309	be leave hold the baby	both	Parent & baby rooms The parent and baby room on Level three is one of the largest in the UK , with changing , feeding and playing facilities all laid on especially for you and your kids . We 've also made sure it 's separate fro the womens loos - after all Dad is just as likely to <b>be</b> <b>left</b> <b>holding</b> <b>the</b> <b>baby</b> . Pushchairs & Tiny Taxis Pushchairs are provided free of charge from our customer information desks .
39693	be leave hold the baby	figuratively	This fear is undoubtedly holding back the development of the Internet as a medium for doing business ( whether business-to-business or business-to-consumer ) . Whilst the Government and the industry struggle to overcome the problems , business <b>is</b> <b>left</b> <b>holding</b> <b>the</b> <b>baby</b> - one the one hand feeling pressured into some sort of web presence and on the other holding back some of the potential for innovation in case it poses a serious risk . Computer crime is huge .
50659	be leave hold the baby	figuratively	Tulip Selling is the art of buying overpriced commodities and hoping their value will continue to rise irrationally . It works stunningly , until the market contracts and some poor sucker <b>is</b> <b>left</b> <b>holding</b> <b>the</b> <b>baby</b> . Price Gouging is acquiring a commodity that the buyers have a strong dependency on , such as water , and making them pay a premium rate .
56156	be leave hold the baby	figuratively	Many businesses have <b>been</b> <b>left</b> <b>holding</b> <b>the</b> <b>baby</b> following Aprilí€Œ¢í‰ä‰åí‰ä‹¢s changes to maternity leave laws . Mark Thompson , an expert on employment law for small businesses at Associa Employment Service explains how firms can manage these new challenges .
85440	be leave hold the baby	figuratively	. Cadbury tries to avoid <b>being</b> <b>left</b> <b>holding</b> <b>the</b> <b>baby</b> after multi-million pound recall Published : 04 November , 2005 Cadbury Trebor Bassett said it would relaunch its Milky Babies sweets by early next year , following a recall just weeks after the product was launched . ( Page 5 : 185 words ) More .
114693	be leave hold the baby	figuratively	Very soon afterwards , Vassilis was offered a very well-paid job with Anderson Consulting . So I <b>was</b> <b>left</b> <b>holding</b> <b>the</b> <b>baby</b> ... I had to learn about Unix rather quickly : I was determined that we would go on in the way that we had planned , but my knowledge at that time was distinctly limited . I once again installed Linux at home and began to learn something about it while continuing to play with FreeBSD at school .
135192	be leave hold the baby	figuratively	There was more of a willingness in the White House to turn a blind eye to the legal niceties than within the CIA . The Agency always knew it would <b>be</b> <b>left</b> <b>holding</b> <b>the</b> <b>baby</b> for this one.í€Œ¢í‰ä‰åí‰Œ But does he care if people suffered ? í€Œ¢í‰ä‰åí‰ñMy priority was to protect Americans .
153199	be leave hold the baby	figuratively	Frank ' Dim ' Dumphy wife Vanessa , played by the talented up and coming actress Brigid Brannagh has trouble coping with her husband 's absence . They also show what it is like when the husband <b>is</b> <b>left</b> <b>holding</b> <b>the</b> <b>baby</b> as his wife goes to war , with the story of Pfc . Esmeralda " Doublewide " Del Rio 's husband Sergio .
963	be my guest	figuratively	Keith will be sleeping in this particular hut when he comes to stay later this week . If you would like to try it out after him , <b>be</b> <b>my</b> <b>guest</b> . Posted by sahelsteve at 05:59 PM April 23 , 2005 Eyes Kids in a village called Bani , not far from Djibo . 
6568	be my guest	figuratively	" " It 's his funeral . " On the other hand , " Knock yourself out , " like " Have a ball , " " <b>Be</b> <b>my</b> <b>guest</b> " and " Go crazy , " is a sardonic way of giving permission , when your permission is solicited , to do something in which you have no intention to assist or participate . It can be said to law enforcers wishing to search your premises , the boss wishing to search your desk , or friends wishing to inspect your closet or investigate your pornography collection . 
8802	be my guest	figuratively	Harleys Let me see her ! was even worse this time , but Glyn didnt feel like doing this incredible <b>Be</b> <b>my</b> <b>guest</b> sir ! as sarcastically again . 
40967	be my guest	figuratively	Someone has to be there to clean up the mess and explain to the customer why his multi million dollar investment is n't working yet because the SW developer had a bad day . Hey if you want all the responsibility , <b>be</b> <b>my</b> <b>guest</b> . Any half decent PM is an asset to any team and will provide a working environment where the developers can concentrate on doing what they are paid for rather than waste time in long , boring meetings being berated by irate customers . 
41312	be my guest	figuratively	Why not register ? Musician is ' full working shareware ' : If you want to use it for free , <b>be</b> <b>my</b> <b>guest</b> . But if you find it useful , please consider registering with me to say thanks and help keep 3-Lib going . 
46000	be my guest	figuratively	Hunt up the terms of service on their website... you have to scroll way down to the bottom and click on the little tiny " terms of service " link . Then go have a look at section 9. If you still want to buy from them after reading it , <b>be</b> <b>my</b> <b>guest</b> . Title : Re : Cheap software from buysusa.com Posted : 3/18/05 12:43:03PM Author : Smile Malegrim , I too thought about using buyusa , mainly because they kept cropping up in google as a sponsored link . 
54845	be my guest	figuratively	Crisps Drink The world 's top 30 wines for over ?10 When experts tested 4,500 wines for Decanter magazine 's wine awards , the last thing they expected was for an Australian Shiraz to beat Chateauneuf-du-Pape .. . <b>Be</b> <b>my</b> <b>guest</b> ... at your own risk Your fail-safe Christmas list of what to drink ... and what to give to the neighbours by Tim Atkin . Paris by night Cocktails just seem to taste better sipped in style in a bar on Avenue Montaigne , says Polly Vernon . 
55577	be my guest	figuratively	There is plenty on it - feel free to explore . The internet is also a passion of mine and I have written more on this on the Your Views pages - please <b>be</b> <b>my</b> <b>guest</b> to leave your own views and comments in 
59721	be my guest	figuratively	Would you mind if I had a go at writing a screenplay ? I said , My goodness , <b>be</b> <b>my</b> <b>guest</b> . I got a very cheap option on the book , because I was convinced that it would n't be a film . 
64129	be my guest	figuratively	This film was like watching a multi-million dollar B movie , mixed in with a Picasso painting and an expensive Marilyn Manson music video . If this tickles your fancy , <b>be</b> <b>my</b> <b>guest</b> but it does NOT class as horror . Final Verdict : It 's not exciting . 
67813	be my guest	figuratively	If the scriptures did not say that homosexuality was " an abomination " ( not my opinion - those of the scriptures ) then there would be no conflict . If you want to follow a religion like Christianity , but which specifically ignores those lines of the scripture , then <b>be</b> <b>my</b> <b>guest</b> . Indeed , I 've no axe to grind with it . 
80886	be my guest	figuratively	Current polls in the Netherlands show that 82 per cent of Dutch voters would now vote í‰äóìNoí‰äó : a tribute to the level-headedness of that brave people . But if you think you can turn them around , dear colleagues , <b>be</b> <b>my</b> <b>guests</b> . Doing so would at least prove your commitment to the democratic ideals you so frequently invoke . 
87315	be my guest	figuratively	They use Caffí€Œ© Vita beans , too -- among the finest in Seattle -- and the baristas will cheerfully customize your drink to your specific needs . ( I have n't tried asking them for a cappuccino doppio morodo falsetto yet , but if you 'd like to try , <b>be</b> <b>my</b> <b>guest</b> . See Planet Wallywood 's Guide to Espresso In Seattle for more fancy terms. ) My favorite place to sit at Caffí€Œ© Ladro is at either of the two elevated window tables on each side of the front door . 
89932	be my guest	figuratively	If your thoughts upon good night out consist of seeing scantily clad women with tres faux louis vutton bags and seeing the ' lads ' with barber style hair cuts chatting the ' ladies ' up with the ' do you want go outside for a quick one love ? ' then <b>be</b> <b>my</b> <b>guest</b> . I myself prefer a little reparte in the likes of Gueller , brb and Babylon. c'est la vie ! 
92686	be my guest	figuratively	There is a ' letters to the press ' page here . ( It is accessed from the Campaigns page , there is a link in the right hand column. ) Please <b>be</b> <b>my</b> <b>guest</b> , for anybody who did n't see the Sunday Post , this is all they would print . Very selective ! 
97614	be my guest	figuratively	NURSE : ( aside ) May I have a go at him . GLORIA : <b>Be</b> <b>my</b> <b>guest</b> . NURSE : Mr Laurence . 
101346	be my guest	figuratively	Would n't want to give the Daily Mail any grounds to criticise , would we ? If that 's how you want to lead your life , <b>be</b> <b>my</b> <b>guest</b> . I respect your right to take charge of your health and responsibility for your actions . 
104029	be my guest	figuratively	If you 're not heating up wine on a camping stove you are making it from scratch . If you want to bring a measuring jug <b>be</b> <b>my</b> <b>guest</b> , ha . I am excited , very much so : ) Just need to stop being ill . 
105075	be my guest	figuratively	. ' twill <b>be</b> <b>my</b> <b>guest</b> and pleasure for a while to admire and return for another day , charmed and enchanted Oh , yes it may be Winter with snow on the ground but we have those memories and the air of mystery to get us through to Summer again . 
105932	be my guest	figuratively	Unlike you , I am quite willing to be enlightened . Please <b>be</b> <b>my</b> <b>guest</b> and take this opportunity to explain how the above can be anything other that the exact opposite of what you assert.You may also care to take a peep at 2 Kings 19:35 ? Again , I invite you to explain how the bloody slaughter , by " beautiful and loving " angels no less , is anything other than a deranged episode from the annals of a bunch of highly disturbed , criminally insane barbarians ? 
112538	be my guest	figuratively	You also ca n't go back in the sequence , and some questions depend on previous answers . If for some reason you absolutely ca n't use either of the graphical methods , <b>be</b> <b>my</b> <b>guest</b> . I recommend using either make menuconfig or make xconfig . 
113888	be my guest	figuratively	I would have to look , I do n't really care as I choose one that is compiled for I686 and takes most of the opts from my proc . Quote : If you want to try and " optimise " software for ' em <b>be</b> <b>my</b> <b>guest</b> . What you do n't know is that it 's not the software that 's optimised for the core , but the core that 's optimised for the software . 
115917	be my guest	figuratively	Different versions of IE display web pages differntly . This ludicrous state of affairs is also easy enough to get around but if you feel like writing a stern email of complaint to Bill Gates then <b>be</b> <b>my</b> <b>guest</b> ;o ) It does mean though that downloading a few older versions of IE for testing is probably a good idea . You can get IE5 , IE5.5 for WinNT/2K and IE5.5 for Win98 ( thats right , the same version of the same browser works differently on differnet versions of Windows ! 
117686	be my guest	figuratively	MULDER : ( grinning , as they rise ) Do you think there would be a problem with us watching lift off from Mission Control ? BELT : Well , being that you 'd probably go over my head anyway , please , <b>be</b> <b>my</b> <b>guest</b> . MULDER : ( Shaking hands again , still in awe ) It was an honor , sir . 
118871	be my guest	figuratively	Even the text-only version of #44 is 146 K compressed , 413 K uncompressed . If anybody wishes to distribute the text version via e-mail , <b>be</b> <b>my</b> <b>guest</b> . There is an announcement mailing list where I announce each issue ; e-mail lg-announce-request@ssc.com with " subscribe " in the message body to subscribe . 
124902	be my guest	figuratively	Standing in a cornfield in his 850 acres in Belleville , Illinois , he says : " Prince Charles , by opposing genetic modification , has not done his country any favours . " " My message to EU agriculturalists is that if you all want to go 100 % organic , instead of taking up GM , <b>be</b> <b>my</b> <b>guest</b> . We will pick up the markets that you miss , but do n't come crying to us when you lose money . 
125458	be my guest	figuratively	Nobody will mind ' ' Do you mind if I have a little cry too ? ' ' <b>Be</b> <b>my</b> <b>guest</b> ' ' Ta ' Once the pain in my hands had eased , my knees briefly took up the torturing baton . Then surprisingly after a full 15 minutes stood in front of their roaring coal fire , my teeth decide they were going to start to chatter again . 
132831	be my guest	figuratively	The longer you keep the property the more you end up losing the VAT refund benefits . So , If you enjoy sophisticated financial schemes designed for punters , well <b>be</b> <b>my</b> <b>guest</b> . I advice you to speak with a spanish lawyer/s first before entering into any such contract . 
133786	be my guest	figuratively	After becoming very frustrated with the " no haggle " attitude of one of the shopkeepers , the Ranger shouted , " maybe I 'll just go out and get my own alligator so I can get a pair of shoes made at a reasonable price ! " The vendor said , " By all means , <b>be</b> <b>my</b> <b>guest</b> . Maybe you will run into a couple of Marines who were in here earlier saying the same thing . 
139139	be my guest	figuratively	" He was not a nice man , and it really upset Buzz a lot . " Hey , you want to upset Neil Armstrong , <b>be</b> <b>my</b> <b>guest</b> . That guy has a serious attitude problem . 
146612	be my guest	figuratively	Yep . <b>Be</b> <b>my</b> <b>guest</b> . Even if I 'm Big Pharma ? 
148078	be my guest	figuratively	I 'm not saying he looks menacing ( I would n't dare ) , but if he 'd said " Mind if I jam for a few numbers ? ) it would have been like " <b>be</b> <b>my</b> <b>guest</b> , can I get you a drink or anything while you 're on sir ? " Thoroughly decent bloke by the way , as were all of them . 
150182	be my guest	figuratively	As I was saying , I 'm P.A. to Frankie Minion . You know , Ingrid , we ladies have to stick together and show these male chauvinist pigs a thing or two ... " Gen. Buford L. Foster : " <b>Be</b> <b>my</b> <b>guest</b> ... " Monica Halsey : " Shove it , Bu ! Do n't worry about him , Ingrid - he 's all wind and piss . 
159049	be my guest	figuratively	You can copy this electronic book . Copy the heck out of it , <b>be</b> <b>my</b> <b>guest</b> , and give those copies to anybody who wants them . The nascent world of cyberspace is full of sysadmins , teachers , trainers , cybrarians , netgurus , and various species of cybernetic activist . 
123	be my guest	literally	As for me--each word burnt a hole in me where it struck . We voted that the old man should bunk with us , and <b>be</b> <b>my</b> <b>guest</b> and Hillyer 's . I shall keep my own counsel , naturally ; but as soon as he is well rested and nourished , I shall take him to Denver and rehabilitate his fortunes . 
1261	be my guest	literally	Do n't go away . Tomorrow night on LARRY KING LIVE , her majesty Queen Noor of Jordan will <b>be</b> <b>my</b> <b>guest</b> . Among the things we talked about , life after the death of her husband , King Hussein . 
2628	be my guest	literally	Finally , there is the little matter of my honour , for I have received him into my mercy and though I am but thy guest , yet the honour of the guest touches also the honour of the host . " My heart swelled within me to have this Frankish warrior claiming to <b>be</b> <b>my</b> <b>guest</b> and submitting his honour to me , for after all , I was only a youth . And yet , I thought , I am of the Bani Ibrim and we recognise no man as our master . 
30287	be my guest	literally	Lucy, please come to my house and <b>be</b> <b>my</b> <b>guest</b> for a week or two.
35729	be my guest	literally	Photo Andy Goodman . Although Gillian Ayres <b>is</b> <b>my</b> <b>guest</b> , taking her out to lunch makes me feel as though I am being spoiled by a favourite aunt . We have never met before , yet there is an easy intimacy as we sit cosseted in the leather banquettes of Wheeler 's , a traditional fish restaurant , a short stroll from the Academy . 
42885	be my guest	literally	So , what 's wrong with the bed ? " " Ray , you <b>'re</b> <b>my</b> <b>guest</b> . You get to sleep on the bed . 
45062	be my guest	literally	I think the greatest excuse for poetry should be poetry itself . Nnorom : Nathan Lewis a poet who <b>was</b> <b>my</b> <b>guest</b> in November 2002 hinted that one the biggest challenges to young poets today is the rap/spoken word phenomenon . He argues that " These poets , and the others who just want attention , frustrate themselves and others who actually work hard at putting words together . 
47847	be my guest	literally	Resources are still sadly limited for adult Aspies in particular , but I am anxious to push things along if given the chance to do so . The highlight of this endeavour , so far , has <b>been</b> <b>my</b> <b>guest</b> speaking engagement at C.R Marchant Middle School , where my friend , Jan Walton teaches . We had a teachersí€Œ¢í‰ä‰åí‰ä‹¢ meeting where I spoke and we brainstormed various ideas on how to make the school environment more suitable for students who have Aspergerí€Œ¢í‰ä‰åí‰ä‹¢s Syndrome . 
52589	be my guest	literally	Focuses , among other things , on trade , aid , industry , health , politics and geography and some of the major issues affecting the poor . B-497 : í‰Œ£ 7.95 : Oxfam : 1995 <b>Be</b> <b>my</b> <b>guest</b> Explores some of the issues arising from the impact of tourism in Britain and around the world . Understanding some of the benefits gained and the damage inflicted is encouraged through discussion and the use of photocopiable activity sheets . 
54795	be my guest	literally	Of course you would be most welcome to stay in my humble mansion . Several members of the Stockton Gentleman`s Nitrous Club will <b>be</b> <b>my</b> <b>guests</b> ; including Lord Armstrong , but excluding the Bishop ! The pious blighter ! 
58556	be my guest	literally	One former member told me he became finally exasperated by this because the composers of that modernist tradition sought such tight control on so much detail in a work - pinning the interpreter down , as it were . I shall return to this in my final topic , a related one of course , as that singer <b>is</b> <b>my</b> <b>guest</b> here on 18 th March . I hope I have so far at least raised some doubts about the whereabouts of music . 
59337	be my guest	literally	But several of them remained visible and approached the strangers with great respect . One of the lovely Queens said to Betsy : " I trust you will honor me by <b>being</b> <b>my</b> <b>guest</b> . I am Erma , Queen of Light . 
61825	be my guest	literally	" I ran forward , yelling to the men to hold back . " He <b>is</b> <b>my</b> <b>guest</b> ! " I shrieked . 
63218	be my guest	literally	Follow him . Say to the owner of the house he enters , ` The Teacher asks : Where <b>is</b> <b>my</b> <b>guest</b> room , where I may eat the Passover with my disciples ? ' He will show you a large upper room , furnished and ready . 
77799	be my guest	literally	New lift and new direction on this new album , yet still the Shetland sound in Filska 's own fine fiddle tradition . What Phil Cunningham had to say : " I met Filska two years ago when they <b>were</b> <b>my</b> <b>guests</b> on Cunningham and Company . I thought they were great then . 
79607	be my guest	literally	Then said Philips , " Master Tyndale ! you shall <b>be</b> <b>my</b> <b>guest</b> here this day . " " No , " said Master Tyndale , " I go forth this day to dinner , and you shall go with me , and be my guest , where you shall be welcome . 
82284	be my guest	literally	He 's a walking advert for the ' Just Say No ' campaign . Rocky Horror star , Richard O'Brien <b>was</b> <b>my</b> <b>guest</b> on That Reminds Me this week . Here 's his song list : Lula Lula Bye Bye - Paul Robeson ( But Richard sang it himself ) 23rd Psalm - The Lord Is My Shepherd Tutti Frutti - Little Richard It Does n't Matter anymore - Buddy Holly I 've Got The Music In Me - Kiki Dee Nature Boy - Nat King Cole Next week I 'm joined by Leah Bracknell aka Zoe Tate from Emmerdale . 
83310	be my guest	literally	Eskholme , P.P.G.M. , H.C. Tayler , P.P.G.M. , and Dransfield . During his stay in Rotherham the Grand Master , who <b>was</b> <b>my</b> <b>guest</b> , visited several of the large works , and left us with a much better impression of Rotherham 's importance than he had previous to his visit . This , I believe , is not unusual with people who visit Rotherham for the first time . 
87616	be my guest	literally	" How about my commission for steering guests here ? " " The lady <b>is</b> <b>my</b> <b>guest</b> , " I told him . He gave in reluctantly . 
103646	be my guest	literally	President 's Ambassadors are expected to not only í‰äóÖspread the word ' about the activities of the Society but also recruit new members . Earlier this year at Hickstead some of the top recruiting President 's Ambassadors <b>were</b> <b>my</b> <b>guests</b> at a champagne reception and luncheon at the prestigious British Horse Society Royal International Horse Show . This year top recruiters will receive other invitations and incentives . 
104173	be my guest	literally	I was so excited that I nearly missed my luncheon appointment . I did n't , but the poor person who <b>was</b> <b>my</b> <b>guest</b> barely said a word throughout our time together as I quoted and re-quoted from the photocopy of the entry in the history book ; indeed Bremeridge was a veritable cornucopia of history and illustrious names . It turned out that Grade II listed , Bremeridge Manor , to give it its proper name is one of Wiltshire 's more historic houses . 
106571	be my guest	literally	This was to be a big , big thing at Television Centre with a huge set . Dawn French <b>was</b> <b>my</b> <b>guest</b> , and Martin Kemp was involved , and lots of money was spent on it - but , sadly , it did n't get commissioned . The idea was n't quite there . 
110690	be my guest	literally	' We were all kids sometimes but there is í‰Œ£ 2,000 to í‰Œ£ 3,000 worth of damage . ' I do n't want his dad to be too harsh with him and I have invited the kid and his relatives to <b>be</b> <b>my</b> <b>guests</b> at Ninian Park for the match against Millwall . ' I do n't know how old the young man is , but I do n't want the guy to get into big trouble . 
111607	be my guest	literally	' Do n't worry about it . I said you would <b>be</b> <b>my</b> <b>guests</b> for the day . The only thing that matters is that you 've got to cross back into Poland before midnight , while this man is still on duty. ' Figure 74 : No man 's land at the border Another two steaming hours were spent in the queue before they finally entered Ukraine - time enough to confirm the Professor 's observation about a wide range of emotions and address styles between travellers and officials . 
113560	be my guest	literally	. And so Christ from his table says to you , to each and every one of us : í‰Œ‡ Come my child í‰äóñ for all your failings , I cannot begin to tell you how infinitely valuable you are to me í‰äóñ í‰Œ‡ Come my child í‰äóñ take bread , take wine í‰äóñ <b>be</b> <b>my</b> <b>guest</b> ! í‰Œ‡ Come my child , offer yourself afresh in my service í‰äóñ for you may not know it yet í‰äóñ but you and I have great things to do together 
118043	be my guest	literally	Adams : This is LLN on Radio National , Radio Australia and the World Wide Web . Telling Lies About Hitler , is our topic and Richard Evans <b>is</b> <b>my</b> <b>guest</b> . What was it about Lipstadt 's book that Irving found it so infuriating . 
123303	be my guest	literally	í‰äó_í‰äó_í‰äó_í‰äó_í‰äó_í‰äó_ . Tateshi the master will <b>be</b> <b>my</b> <b>guest</b> today 's tea ceremony í‰äó_í‰äó_í‰äó_í‰äó_í‰äó_í‰äó_ . Kikuyo ---- ------ ------- ------- - --- breaking traditions a modern art plate í‰äó_í‰äó_í‰äó_í‰äó_í‰äó_í‰äó_ . 
124608	be my guest	literally	We all headed outside where most of my fellow hosts were excitedly greeting old friends . People were waving and calling out names , greetings were being exchanged , people were hugging and cheeks were being kissed , but where <b>were</b> <b>my</b> <b>guests</b> ? Maggie came to my rescue and led in my direction ' Carole et Christophe ' and suddenly it was ' Bonjour ' all around followed by four kisses on the cheeks ! 
129346	be my guest	literally	My College is late in the order of Colleges and my other graduands appreciate a leisurely lunch . Instead of <b>being</b> <b>my</b> <b>guest</b> of honour at lunch and walking with me at the head of the procession to the Senate House , which is what I should prefer , my higher graduand very likely has lunch , í€Œæ deux , with my press-ganged deputy . On a bad day this lunch might be at their own expense in one of Cambridge 's fast-food outlets . 
129988	be my guest	literally	I also have been left all alone : my little Francesca visits her mother 's family in the north , and without her my house it is very quiet . You must <b>be</b> <b>my</b> <b>guest</b> for the day. ' ' Well , I.. ' Antioni lifted the wine-bottle from the table . ' You have the taste , you buy the best wine in the village . 
129989	be my guest	literally	' I forget , the day after tomorrow I give the dinner ; my friends from the village will be here . You , your brother and his lady , you will <b>be</b> <b>my</b> <b>guests</b> of honour ? ' ' Sure , ' Virgil called back . 
131089	be my guest	literally	" Now , now , gentlemen , " interrupted Nimmie Amee , " I must ask you to be more respectful to poor Chopfyt . For , <b>being</b> <b>my</b> <b>guests</b> , it is not polite for you to insult my husband . " " Your husband ! 
136686	be my guest	literally	I do ask the people who own it if I can take friends to look at it. **** When we went for a walk every Sunday , we never came back empty handed . Everybody , no matter who they were , even if they <b>were</b> <b>my</b> <b>guests</b> , they all brought back a piece of wood , or a branch of a tree , which was thrown in the shed to be chopped up for the winter . **** Do you remember the glow-worms in the hedges ? 
140788	be my guest	literally	I said that before the Arab Kings and Presidents . Only I did not mention Kuwait and U.A.E. by name , because they <b>were</b> <b>my</b> <b>guests</b> . Before this , I had sent them envoys reminding them that our war had included their defense . 
150932	be my guest	literally	" Montague laughed . " Truly that would be a vigorous way of proceeding ; but as I have no proof of the truth of my suspicions , and as the man <b>is</b> <b>my</b> <b>guest</b> at present , as well as my pilot , it behoves me to act more cautiously . " " Not at all ; by no means ; you 're quite wrong , captain ; ( which is the natural result of being young--all young people go more or less ; ) it is clearly your duty to catch a pirate anyhow you can , as fast as you can , and kill him without delay . 
155376	be my guest	literally	Finally , Mr. President , I flew from South Africa back to Chequers . There Boris Yeltzin <b>was</b> <b>my</b> <b>guest</b> , and the President of Russia and the British Prime Minister shared a country house weekend , a walk in the English countryside , and a pint of beer in a British pub . Four snapshots of change , historic days , when the impossible becomes not just possible but an everyday reality . 
165411	be my guest	literally	The strongest of these voices was Dr Esiaba Irobi . He gave me the e-mail address for Obi Nwakanma and suggested that I invite him to <b>be</b> <b>my</b> <b>guest</b> for December 2002 . I heeded Irobi 's advice and registered the Sentinel Poetry Movement , and then proceeded to register the magazine with the British Library . 
103771	behind bar	figuratively	Teenage murderer gets 14 years TEENAGE killer Colin Gill was today told he would spend a minimum of 14 years <b>behind</b> <b>bars</b> . ... more í‰Œé Parents get the message on car seat safety for kids POLICE and road safety officers carried out a spot-check outside a city school after new child car seat safety laws came into effect today .
111250	behind bar	figuratively	Coventry-based Vince is one of the UK 's top nude activists having been involved in high-profile kit-shedding stunts at Buckingham Palace and Scotland Yard . His antics have resulted in court cases and stints <b>behind</b> <b>bars</b> . The debate on the motion í‰äóìThis house would undressí‰äó reached a thrilling climax as both debaters and onlookers responded to Bethell 's urgings by revealing all , astonishingly led by Union big shot Tom Plant who supported Bethell in the proposition camp .
11217	behind bar	literally	He was standing <b>behind</b>the <b>bar</b> all his life, serving drunks and people with disabilities.
111645	behind bar	literally	The jail has a large proportion of Aboriginal inmates . With radio talk-show callers describing her as a Joan of Arc figure , she has won far more support <b>behind</b> <b>bars</b> than she ever enjoyed on the campaign trail . Debbie Kilroy , a member of the Queensland prisoner advocate group Sisters Inside , said Ms Hanson could expect a difficult time in jail .
140037	behind bar	literally	Truly there were giants in the land . Into the library for a flick through Poucher 's Scottish Peaks - his walking routes drawn onto photographs in thick white roadpainter 's lines - before pressing on northward past a grassed-over reservoir where a trig point sat <b>behind</b> <b>bars</b> like some caged zoo animal . I crossed the railway again : the meandering , lived-in backline between Edinburgh and Glasgow .
43088	below the belt	figuratively	We on the other hand would regain our position as a credible potential government . To anyone who thinks that taking advantage of our opponentí€Œ¢í‰ä‰åí‰ä‹¢s current misery is ungentlemanly , let me remind you of the early 1990s , when all of them wasted no opportunity to hit us <b>below</b> <b>the</b> <b>belt</b> . What comes around , goes around .
47071	below the belt	figuratively	Derek Bodell , NAT 's chief executive , said : " The UK is experiencing rapidly rising levels of STIs , including HIV , and it is essential that men take precautions and seek medical advice . It 's important to think <b>below</b> <b>the</b> <b>belt</b> as well as above it . " Charity trustees praised during Volunteers Week The Charity Commission has paid tribute to the country 's one million charity trustees during last month 's National Volunteers Week .
109914	below the belt	figuratively	Hauling themselves from the murk of Paisley in the mid í‰äóÖ'80s , the Church Grims were a gang of street urchins in love with dreams of Rimbaud and James Kirk , and they made a mighty fine sound that left nerves jangling . With a June Brides trumpet and an early James off-kilter skirl , they punched <b>below</b> <b>the</b> <b>belt</b> and kissed above the stars . I loved them dearly , and do so again .
127123	below the belt	figuratively	After all you have been through PG , being called pompous should be water off a duck 's back . I used to argue with someone on this site and we hit each other <b>below</b> <b>the</b> <b>belt</b> a couple of times , but now I go to see this person who is now a firm friend . You just got to give as good as you get and never take things personally .
135605	below the belt	figuratively	Even that is wasted here . The one-liners wait to be whacked , rather than hitting <b>below</b> <b>the</b> <b>belt</b> like they used to . Also , much of it is in Japanese , which loses something in the subtitles .
160563	below the belt	figuratively	GR : To try to slander or belittle other opinions because you know about a relationship just leaves me sick . It <b>below</b> <b>the</b> <b>belt</b> . Its discusting .
63382	below the belt	literally	Made from 100 % cotton these have a sort of canvas feel like real army trousers . All the pockets have velcro fastening and they have the word " GASP " written in a gothic style on the arris <b>below</b> <b>the</b> <b>belt</b> loops , really good if you want the ladies ( or whatever takes your fancy I suppose ! ) to notice your butt !
76831	below the belt	literally	If a fighter was knocked down , he must rise within 30 seconds of his own power to be allowed to continue . Biting , headbutting and hitting <b>below</b> <b>the</b> <b>belt</b> were declared fouls . Boxing autographed memorabilia Boxing photographs - unsigned boxing photographs Boxing autographed memorabilia Boxing photographs - unsigned boxing photographs How Boxing started - History of Boxing from prizefighting or pugilism Origins of Boxing - Where did Boxing originate from ?
58546	breath of fresh air	both	Why we all need a <b>breath</b> <b>of</b> <b>fresh</b> <b>air</b> . P assive Smoking Kills - Nurses can make a difference . 
93640	breath of fresh air	both	The Smell Buster works without chemicals , nor does it simply cover odours with synthetic fragrances . And you 'll only have to purchase the Smell Buster once - a once in a lifetime product - a real <b>breath</b> <b>of</b> <b>fresh</b> <b>air</b> ! Product Price Quantity Classic Smell Buster - SMELL14025 í‰Œ£ 16 The Classic is perfect for all round the home , in rooms up to 16m2 ( 172 square feet ) but it is especially useful in the kitchen . 
2683	breath of fresh air	figuratively	" Lord Lamont of Lerwick , the former Tory Chancellor , said : " He was the most politically incorrect , outspoken , iconoclastic and reckless politician of our times . In a world dominated by spin and fudge , Alan was a <b>breath</b> <b>of</b> <b>fresh</b> <b>air</b> . " Sir Malcolm Rifkind , the former Foreign Secretary , said that a more complex character lay behind the raffish image that Mr Clark projected in public . 
4135	breath of fresh air	figuratively	The song only really begins to make sense when it 's wierd , almost ' War Of The World ' style vocals mix with the out of this world video . This is as innovative and original a song as you 're likely to hear this year and while it will win few gold stars on the commerciality front it does manage to breathe a <b>breath</b> <b>of</b> <b>fresh</b> <b>air</b> into todays music industry . Hopefully a big hit , but I suspect a top thirty might be the best they can hope for . 
7581	breath of fresh air	figuratively	Maggie Stradlater 13th Dec 2005 , 12:54 This has to be one of my top movies for this year . ( This and " DIG " , the rockumentary , which I also adored. ) Sideways was just a <b>breath</b> <b>of</b> <b>fresh</b> <b>air</b> , a brilliantly funny and poignant character study . The novel is also a hoot - quite different from the film in a number of ways but laugh out loud funny and you can see why they made most of the changes for the movie , since some things just would n't work as well on-screen . 
9964	breath of fresh air	figuratively	Starting the account and launching the site should never have been that easy ! It was also a <b>breath</b> <b>of</b> <b>fresh</b> <b>air</b> . The old site had been with one of the best-known ' old-school ' ISPs - it was reliable but clunky and expensive... in fact , twice as expensive . 
13637	breath of fresh air	figuratively	The documentaries from the old disc are gone , and replaced by a new band documentary . This new documentary is a <b>breath</b> <b>of</b> <b>fresh</b> <b>air</b> , since it 's quite honest and not one of those ' everybody loves everyone ' things . The live performances and music videos are still here , and we also get the music videos for ' Analyse ' and ' Time is ticking out ' . 
14082	breath of fresh air	figuratively	Our church gathered at the beach today ! We had a really lovely time together , and it was a spiritual <b>breath</b> <b>of</b> <b>fresh</b> <b>air</b> to me as well as a physical one . First of all we spent 20 minutes or so walking/sitting/looking around together and individually , just appreciating the creation around us and being open to hearing from God . 
14917	breath of fresh air	figuratively	" " With very best wishes , " This story came from Mary ( Fotheringham ) Ellner who lives in California , USA . Back to top " The gradual feeling of being in more control through increased confidence at work has been a <b>breath</b> <b>of</b> <b>fresh</b> <b>air</b> . " " Since receiving my CD trainer , I have sat down and using my walkman , listened to it slowly , re-running areas that I had not heard properly and made the notes as I progressed . 
22971	breath of fresh air	figuratively	My view so far is that Reiki Evolution provides what people need , in a highly professional caring manner . 10/10 SUPERB.í‰äó David Jemitus , Surrey , June 2006 í‰äóìAfter studying Reiki 1 with a Western-style Master , Reiki Evolution has been a <b>breath</b> <b>of</b> <b>fresh</b> <b>air</b> . Thank you ! 
26449	breath of fresh air	figuratively	It was quite obvious that Toni had done much research into , not only the history of the cards , but also their different meanings - i.e. on this level and also the spiritual level . Her level of intuition is excellent and brings a <b>breath</b> <b>of</b> <b>fresh</b> <b>air</b> to the reading -- blending the intuition with the objective . Well done Toni ! 
30534	breath of fresh air	figuratively	The ABI even suggests getting a chartered surveyor to produce a professional rebuilding cost assessment . Given the prohibitive expense of doing so , the M&S contract comes as a <b>breath</b> <b>of</b> <b>fresh</b> <b>air</b> . It is revolutionary in other respects too as there are no inner limits , except on personal liability and personal money cover , no compulsory excess and a no-claim discount is allowed , even if there is a claim once every four years . 
32487	breath of fresh air	figuratively	And he would be right . A <b>breath</b> <b>of</b> <b>fresh</b> <b>air</b> ? Or hot air ? 
33822	breath of fresh air	figuratively	For those who have yet to stay at the Draycott Hotel , it should come as a very pleasant surprise . Perhaps even as a <b>breath</b> <b>of</b> <b>fresh</b> <b>air</b> . To quote one of our guests , ' most hotels only give you a sense that you 're comfortable while on your way to somewhere else . 
34850	breath of fresh air	figuratively	Thurrock people are uncompromising , energetic and direct . Their down to earthness and lack of pretension unclouded by snobbery is like a <b>breath</b> <b>of</b> <b>fresh</b> <b>air</b> . In Thurrock a spade is most definitely called a spade and not a ' digging implement ' . 
38463	breath of fresh air	figuratively	A number have chosen to go early and they have been missed . In their place have been recruited younger men and women who have brought a <b>breath</b> <b>of</b> <b>fresh</b> <b>air</b> into the common room . The phasing out of the assisted places scheme has presented the school with the moral problem of how it manages to educate children from poorer families . 
39874	breath of fresh air	figuratively	The music is fantastic with some familiar kwaito tracks from Zola -- who is also in the cast as another gangster -- are balanced by Vusi Mahlasela 's more spiritual hopeful sounds . Tsotsi is a <b>breath</b> <b>of</b> <b>fresh</b> <b>air</b> . It 's a universal story but one set in Africa told by Africans with a dignity , subtlety and accomplishment . 
40330	breath of fresh air	figuratively	This is feel-good music at its very best . Welcome this <b>breath</b> <b>of</b> <b>fresh</b> <b>air</b> to the Christian format . Read more A Look Inside - Compact Disc by Nathan Tasker ( CD ) Price now : í‰Œ£ 12.00 Australian Nathan Tasker is a Christian singer-songwriter who is able to speak spiritual ideas to people wherever they may be . 
43365	breath of fresh air	figuratively	' Bad Cover Version ' features Jarvis ' trademark clever lyrics and comes complete with a humorous video taking the mickey out of the Band Aid video . Whatever they release it is always a <b>breath</b> <b>of</b> <b>fresh</b> <b>air</b> into the charts , and I for one hope this does well for them . Best title for a group in some time has to go to the Pay As U Go Cartel , a band who are already big on the UK garage underground circuit and who boast Maxwell D as being one of their members . 
43536	breath of fresh air	figuratively	So Carroll 's appointment is all the more exciting . Mining industrialist Rudolf Agnew says : " This is a total break with the past for Anglo - a <b>breath</b> <b>of</b> <b>fresh</b> <b>air</b> . " But you would n't have thought so by the stock market 's gut reaction to the news , slashing the group 's value down by í‰Œ£ 554m to í‰Œ£ 36.6bn . 
47992	breath of fresh air	figuratively	Indeed , as our country 's reunification process begins , the Democratic Republic of Congo is putting an end to the deadly war , which has lasted about seven years . This reunification has injected a <b>breath</b> <b>of</b> <b>fresh</b> <b>air</b> ( of reconciliation and peace ) to the sons and daughters of this country . For the PNKB , these hopes are still far from being totally achieved . 
52963	breath of fresh air	figuratively	Published : 22 January 2005 New England 's small ski areas are a <b>breath</b> <b>of</b> <b>fresh</b> <b>air</b> after the busy western slopes , says Stephen Wood Gold rush in the hills Published : 01 January 2005 Sestrií€¨Íí‰ŒËre 's preparations for next year 's Winter Olympics are well underway . Stephen Wood checks up on progress in the Italian Alps and finds a world-class ski resort taking shape The Independent Parent : ' Where can we take a half-term skiing holiday close to home ? 
53272	breath of fresh air	figuratively	Was this review helpful to you ? ( Report this ) 4 of 4 people found the following review helpful : Emperor Rosko doing what he does best introducing soul music , 18 Nov 2001 Reviewer : A music fan What a <b>breath</b> <b>of</b> <b>fresh</b> <b>air</b> to hear Rosko introducing classic soul like " Arhie Bell & the Drells - Hear I go again " , " Aretha Franklin - I say a little prayer " . I have waited a long time for a CD like this and what a feel good factor it is . 
53801	breath of fresh air	figuratively	She instinctively knows she lacks something and thinks a university degree will fill the gaps in her life . She cannot articulate like Frank , but her freshness is ' like a <b>breath</b> <b>of</b> <b>fresh</b> <b>air</b> ' to him . Why do you think this would be so ? 
55811	breath of fresh air	figuratively	They will come through these difficulties . The one <b>breath</b> <b>of</b> <b>fresh</b> <b>air</b> was Andy Campbell , although out of position again wide left , who was roasting Coventry 's defenders and bringing City forward . He picked City up again and charged the crowd too , there was a buzz as he ran . 
62240	breath of fresh air	figuratively	The second edition of Silent Revolution is thus particularly welcome . It provides a <b>breath</b> <b>of</b> <b>fresh</b> <b>air</b> in this quest . " Josí€Œ© Antonio Ocampo , Former Executive Secretary , CEPAL ( UN Economic Comission for Latin America and the Caribbean ) " In this outstanding volume , Duncan Green offers a dynamic and comprehensive analysis of the neo-liberal reform experience in Latin America over the last three decades . 
62779	breath of fresh air	figuratively	Our bespoke computer systems combine power , functionality and flexibility , backed up by an excellent warranty and friendly customer service í‰äóî perfect for beginners and experts alike . Our personal approach to business and friendly atmosphere are quite a <b>breath</b> <b>of</b> <b>fresh</b> <b>air</b> í‰äóî coupled with our excellent expertise in almost every area of the computer world í‰äóî make for an experience most people do not expect even from the most ' local ' of shops . So why not give us a try ? 
64643	breath of fresh air	figuratively	We 're sure you 'll be delighted by Drifters , and can book with confidence . It 's a <b>breath</b> <b>of</b> <b>fresh</b> <b>air</b> . If you 've always thought about a holiday on the waterways , we can offer you the very best way of achieving it . 
68050	breath of fresh air	figuratively	Money aside , this could put d&b on the map through the download singles chart , and let everyone know what we all ready know : that d&b is alive and kicking , and is moving onwards and upwards year by year . WORDS Rahul Verma PHOTOGRAPHY Cleveland Aaron HELLO Asian influenced d&b The Nasha Crew 's ' Drum & Breaks ' compilation is a <b>breath</b> <b>of</b> <b>fresh</b> <b>air</b> . Blackmarket Records are behind it and Nasha 's recent 12"s are selling well . 
69301	breath of fresh air	figuratively	Well done . I hope this posts this time , but ether way I 've noticed the RSS feed is working again. :- ) #4 On May 11 , 2005 11:33 AM mohodin rageh said Your new design is a <b>breath</b> <b>of</b> <b>fresh</b> <b>air</b> but I miss one thing . The scooter with its rider taking a center stage . 
69660	breath of fresh air	figuratively	Layer Cake has managed to defy expectation in the best possible way and live up to its hype . The professional appearance and superb performance by a quality cast all serve to guarantee that Layer Cake is a <b>breath</b> <b>of</b> <b>fresh</b> <b>air</b> and deserves to be a hit . At the very least it has marked Matthew Vaughn out as a director to watch . 
71062	breath of fresh air	figuratively	This led to Ladyfests , in amongst other places , Glasgow and Chicago in 2001 . Ladyfest is a <b>breath</b> <b>of</b> <b>fresh</b> <b>air</b> to gargantuan corporate music festivals where only a sprinkling of women , if you 're lucky , perform every year . It 's a much-needed breather from the constant ridicule that female performers encounter on a day-to-day basis . 
71796	breath of fresh air	figuratively	Environmentalists are delighted about the future prospects for the countryside . Jonathan Curtoys , Agriculture Spokesman for the RSPB told NFU Countryside : í€Œ¢í‰ä‰åí‰ñIt is amazing , a <b>breath</b> <b>of</b> <b>fresh</b> <b>air</b> . What is now needed is a better integration of agricultural and environmental policies , that are compatible . 
75618	breath of fresh air	figuratively	Scott Tinsley is well known to the UK dance underground via his work with tracks like í‰äóìChubby Chunksí‰äó and on Tony DiBart 's í‰äóÖThe real Thingí‰äó , a UK number one . You could call it street music for the 21st century , a <b>breath</b> <b>of</b> <b>fresh</b> <b>air</b> in the rarified realms of electronica , a timely and radical synthesis of hip-hop , jazz , rare groove and house- or you could just listen to the music . 
76455	breath of fresh air	figuratively	She has been imposed by central Office following the farcical debacle of Sue Catling . She is not " a <b>breath</b> <b>of</b> <b>fresh</b> <b>air</b> . " She is an ambitious young woman looking after a parliamentary seat . 
80163	breath of fresh air	figuratively	You have made my job a lot easier Malcolm Mclean , Quality Assurance Manager , Canada I feel compelled to contact & congratulate you on your Plain English , easy-to-understand Web Site . Having been in the Aerospace Industry for 30+ years and in QA for 21 years , your site is a <b>breath</b> <b>of</b> <b>fresh</b> <b>air</b> and goes a long way to de-mystifying ISO 9000 for newcomers to our industry . Well done ! 
80211	breath of fresh air	figuratively	The people I talked to in the street today were fifty times more articulate than the windbags on the husting platforms . They were a <b>breath</b> <b>of</b> <b>fresh</b> <b>air</b> amidst the stinky pollution of the Western Road . It must be said , the loony Bob Dobbs strikes me as being an OK bloke , but what the hell is he doing standing for election ? 
80962	breath of fresh air	figuratively	Pen Hadow Price range from í‰Œ£ 4000 - 7000 To book Pen , please call us on 020 7247 1193 or e-mail to : info@cityspeakersinternational.co.uk Books & Videos Photos & Video Clips Background Pen Hadow is a <b>breath</b> <b>of</b> <b>fresh</b> <b>air</b> on the business speaking circuit . Uniquely , he combines a business background , with team leadership , with recent , world class , solo record breaking achievements . 
84974	breath of fresh air	figuratively	Other features incorporated as a result of market insight include an integrated slot CD with MP3 capability , curved speakers to create amazing stereo sound and an ultra thin credit card sized remote control . Richard Wharton í€Œ¢í‰ä‰åí‰äóì one of the founding Directors of Genius says í€Œ¢í‰ä‰åí‰äóì í€Œ¢í‰ä‰åí‰ñ Alloy have been a <b>breath</b> <b>of</b> <b>fresh</b> <b>air</b> . They are committed to providing an uncompromised solution with a true understanding of the process required to build value into a brand . 
85913	breath of fresh air	figuratively	That 's why they put up with , sometimes , quite awful adverse effects that have a big negative impact on the quality of their lives . So a look at patient expectations [ 1 ] is a welcome <b>breath</b> <b>of</b> <b>fresh</b> <b>air</b> . Study Subjects were randomly selected from three groups : 1 Group 1 had just been discharged from the coronary care unit ( CCU ) with a diagnosis of myocardial infarction . 
86045	breath of fresh air	figuratively	An historic agreement signed with the Canadian government in 1999 allowed the communities living there independence to run their land how they chose . In this long-established society , the modern medium of the internet is proving a <b>breath</b> <b>of</b> <b>fresh</b> <b>air</b> . " There are 25 settlements , 30,000 people and no roads . 
86139	breath of fresh air	figuratively	It has the added benefits of Rosewood , an essential oil that balances and hydrates.How to use : Apply directly to the skin with warm water and when not in use , store in a well-drained dish . SENS Cleansing Scrub Gel 125ml í‰Œ£ 11.75 A <b>breath</b> <b>of</b> <b>fresh</b> <b>air</b> for your skin ! Leaves the skin fresh and smooth , wakes up the complexion and prepares the skin for shaving.This exfoliating and purifying foaming gel cleans the skin softly , thoroughly and quickly . 
86929	breath of fresh air	figuratively	Each kick can work as a pass or a shot , and tackling can be performed by simply running into the player with the ball - although a slide tackle can also be performed . This simplicity will probably feel like a <b>breath</b> <b>of</b> <b>fresh</b> <b>air</b> for some people , and for the first few hours with the game I felt the same . Sadly , chinks in the game will start to appear , with a number of problems being severe enough to really put you off . 
87528	breath of fresh air	figuratively	An Orchestra Awakened 27 Jun 2004 ENO on The Pyramid Stage The orchestra , away from all the stuffiness of the concert hall and its four square walls provides , by striking contrast , a real <b>breath</b> <b>of</b> <b>fresh</b> <b>air</b> to Wagnerí€Œ¢í‰ä‰åí‰ä‹¢s í€Œ¢í‰ä‰åí‰ñRide of the Valkrieí€Œ¢í‰ä‰åí‰Œ . It seems as if a tired , sleeping beast had been conjured back to life for a crowd of festival goers who were genuinely struck with a fascinating curiosity for this most surreal of meetings . 
88779	breath of fresh air	figuratively	Good to see postings by Old Bald Bloke . A <b>breath</b> <b>of</b> <b>fresh</b> <b>air</b> . Reminiscent of the underachieving manager of Athletico Whaddon , Les Bence , the sorely missed columnist from When Saturday Comes in the late 80's . 
88809	breath of fresh air	figuratively	In no sense is he an " outsider " as Kennedy , Carter , and even to a lesser extent Reagan were when they entered the White House . But by recent Soviet standards Mr Gorbachev is a <b>breath</b> <b>of</b> <b>fresh</b> <b>air</b> . His easy public manner , his affability , his willingness to listen and his ability to show interest in the people he meets mark him out . 
90158	breath of fresh air	figuratively	If you had music like this every time , I could bring loads of people along . A <b>breath</b> <b>of</b> <b>fresh</b> <b>air</b> ' . 
96666	breath of fresh air	figuratively	I would recommend this site to anyone in this region . " Personnel Manager InterContinental May Fair London " Hcareers - a <b>breath</b> <b>of</b> <b>fresh</b> <b>air</b> when it comes to recruitment . An excellent tool for attracting , searching and contacting the ' right ' employees for a demanding five star market . 
101464	breath of fresh air	figuratively	My friend forced me to read that collection you linked to . Chadwick was just a <b>breath</b> <b>of</b> <b>fresh</b> <b>air</b> , not only with his line work , but also with his storytelling . I hope he releases some new stuff soon - the market could finally be more appreciative of his work . 
103178	breath of fresh air	figuratively	A track to brighten up anybody 's day . Great set , Phil. top of the page í‰äó¢ Dennis Taylor - Unconditional / Ali Ollie Woodson - Right Here All Along Dennis Taylor 's first album , that hit the streets during the latter part of last year , came as a real <b>breath</b> <b>of</b> <b>fresh</b> <b>air</b> in this ' new R & B ' , over produced , music scene . The track ' Enough Is Enough ' had been circulating on a white label for nearly a year prior to that excellent release . 
104637	breath of fresh air	figuratively	Tony Roper took on the dame part just like his mentor Rikki Fulton . Change of cast a <b>breath</b> <b>of</b> <b>fresh</b> <b>air</b> . Nice to see Nicol Park again . 
108026	breath of fresh air	figuratively	Employer Direct online has been able to provide us with this facility by giving us ownership of placing our vacancies online . This is a <b>breath</b> <b>of</b> <b>fresh</b> <b>air</b> from having to phone or fax through each vacancy. ' For details go to 
111937	breath of fresh air	figuratively	I certainly havent . User Rating - Martin , Hove Posted on 30 / 10 / 2005 If you want to save money for it componants then this company is a <b>breath</b> <b>of</b> <b>fresh</b> <b>air</b> . They have a good stock of goods and for my two orders the delivery has been prompt . 
120957	breath of fresh air	figuratively	That allows me to own my recovery . I 've enjoyed my recovery - it 's like a <b>breath</b> <b>of</b> <b>fresh</b> <b>air</b> every day . Please enjoy yours ! 
123240	breath of fresh air	figuratively	Both 24 , they are latter-day Likely Lads , " where one mouths shite while they other plays guitar " , as Moffat puts it . Moffat 's non-PC lyrics are a <b>breath</b> <b>of</b> <b>fresh</b> <b>air</b> in the current clever-clever musical climate but the band have been branded offensive by their mothers . Middleton admits : " My mum says she likes the music but she does n't like Aidan 's singing . 
130066	breath of fresh air	figuratively	Raz is a quirky kind hearted ageing ex-punk . He is a <b>breath</b> <b>of</b> <b>fresh</b> <b>air</b> for Lina , who has struggled on her own for years to bring up her two kids , and who has a tendency to take life too seriously . Raz has recently discovered Buddhism . 
132622	breath of fresh air	figuratively	Did n't get tickets to Geldof 's fancy dress ? Do n't despair...join us on 2nd of July for the 2005 Haringey Critical Mass. A leisurely ride down the Green Lanes to reclaim our streets and send a <b>breath</b> <b>of</b> <b>fresh</b> <b>air</b> to those meeting in Gleneagles. í‰Œé read more NEW EARTH FIRST ! ACTION UPDATE : Out now ! 
134723	breath of fresh air	figuratively	I am in the Cambridgeshire Outreach Network for Education -CONE Network Learning Community and teach at St Neots Community College of Performing Arts and Media Technology . Lesley Warp www.co-net.co.uk SLNgeography@IOELondon Fantastic site by the way - I love the way it has really developed organically...a <b>breath</b> <b>of</b> <b>fresh</b> <b>air</b> ! I 'm a relative newcomer to SLN but hope I will be able to contribute more in future....as a geographer I think the site is really inspirational . 
135763	breath of fresh air	figuratively	These works are always amusing whilst telling more important stories . What a <b>breath</b> <b>of</b> <b>fresh</b> <b>air</b> the Rietveld Artists are . Her two pieces were ' Stop Forgetting ' a clear blown glass bubble with central open slit containing a photographic negative and mirror , then connected to a hand basin chain and plug which runs out and on to the floor . 
136769	breath of fresh air	figuratively	Just absolute rendition of subject matter . <b>Breath</b> <b>of</b> <b>fresh</b> <b>air</b> . Thanks , VCE comments : Awesome ! 
140446	breath of fresh air	figuratively	" Those of us who have been in boxing for a number of years see a lot of fighters for what they are , which in many cases these days is inflated egos and poor technical ability . So when someone like Craig comes along , it 's a <b>breath</b> <b>of</b> <b>fresh</b> <b>air</b> . " And Hearn believes victory against Boris Sinitsin on the 15th of October will catapult the Glaswegian into boxing 's big time and world title fights . 
140491	breath of fresh air	figuratively	Hard to believe , I know , but Mark Knopfler and his band Dire Straits arrived alongside punk in the mid-70s . Their first album was a <b>breath</b> <b>of</b> <b>fresh</b> <b>air</b> , but production , money and fame soon got the better of them . Knopfler survived of course , and went on to become a superstar who hung out and played with Dylan et al ; now we get an album of duets with Emmylou Harris . 
142051	breath of fresh air	figuratively	When the fake punk sounds of The School Bully are the only decent thing in the upper reaches of the " official " chart , we 're in huge trouble . We need a <b>breath</b> <b>of</b> <b>fresh</b> <b>air</b> . We need something to blow away the tedious reliance on over-manufactured bands . 
157203	breath of fresh air	figuratively	" Phew . A lot of information there , finishing on that ' <b>breath</b> <b>of</b> <b>fresh</b> <b>air</b> ' . Several weeks ago Sam learnt that his compulsion for chocolate wanted him " To get my breath back after struggling " . 
158441	breath of fresh air	figuratively	. Analyser is <b>breath</b> <b>of</b> <b>fresh</b> <b>air</b> Published : 01 June , 2006 A " fool-proof " headspace gas analyser for modified atmosphere packaged food has been launched by PBI-Dansensor . ( Page 70 : 134 words ) More . 
164448	breath of fresh air	figuratively	Yes , a good number of us joined and I did too . The SLP came right at the end of our dispute , and what a <b>breath</b> <b>of</b> <b>fresh</b> <b>air</b> that was . Certainly I remember in Liverpool there wasní‰äó»t enough room in Central Hall to accommodate us all . 
4655	breath of fresh air	literally	Turn left and left again for the Six Bells , or left and right for the Waters Edge . If you need a walk and a <b>breath</b> <b>of</b> <b>fresh</b> <b>air</b> then there is a lovely one+ mile walk around the lido , just head for the Waters Edge and you ca n't miss it . I appreciate that you may be reading this page at a time of great sadness , but was it helpful ? 
5489	breath of fresh air	literally	If you feel unwell , ask the invigilator if you may leave the room for a short while . Taking a few deep <b>breaths</b> <b>of</b> <b>fresh</b> <b>air</b> or a drink of water may be just what you need to calm down. í‰Œ©2003 The Counselling Service , The University of Dundee 
47435	breath of fresh air	literally	 for parents and under 3's . If you fancy a <b>breath</b> <b>of</b> <b>fresh</b> <b>air</b> there are a few pushchair-friendly walks in Bath and surrounding area . The City Trail ( available from Bath Tourist Information Centre ) explores Bath while further afield Jenny 's Path at Radford Mill , the Grebe Trail at Chew Valley Lake , and part of Avon Wildlife Trust 's Folly Farm are all pushchair accessible . 
80755	breath of fresh air	literally	A paraffin lamp lay on the stairs . They then went outside to get a <b>breath</b> <b>of</b> <b>fresh</b> <b>air</b> . Constable HENDRY stated that about 11.50 on Saturday night he was called to the deceased 's house . 
106427	breath of fresh air	literally	Roots from the trees above grab at her face and hair as she frantically scrambles along ; sweat pours off her as she struggles to breathe in the airless tunnel . She reaches the end and pushes above her ; her head pops out of a trap door and she takes a large <b>breath</b> <b>of</b> <b>fresh</b> <b>air</b> . Hidden by a small copse of trees behind a group of wooden huts , she scrambles out . 
109087	breath of fresh air	literally	He belly crawls to the door and shimmies up to the door frame . He sticks his head outside and takes a deep <b>breath</b> <b>of</b> <b>fresh</b> <b>air</b> , feels much better and takes a step out onto the pavement . He falls flat on his face . 
116210	breath of fresh air	literally	Back to top TICK LIST FOR THE FAMILY CARER Have you taken some time out for yourself , or planned some time out , even if it 's just for a cup of tea . Take a short walk - there is nothing like a <b>breath</b> <b>of</b> <b>fresh</b> <b>air</b> to clear your thoughts . Clear the mind of negative thoughts and think positive - sometimes it works ! 
160434	breath of fresh air	literally	Mum and Dad quietly left the house at 2.30am . I was wide awake and could n't sleep another wink - did this mean you were on the way or had they just gone out for a <b>breath</b> <b>of</b> <b>fresh</b> <b>air</b> ? I stared at your Kenyan People Mobile for a long time . 
5285	bring to the table	figuratively	We have reason to believe we are in the midst of a process with the ATSB to make our application acceptable and that a decision was premature . We do not believe that the Board was made fully aware of the important modifications United was willing to <b>bring</b> <b>to</b> <b>the</b> <b>table</b> . We are respectfully petitioning the ATSB for reconsideration of our pending loan application . 
7073	bring to the table	figuratively	Yet Test Center engineers found that not be the case . The functionality that SP2 <b>brings</b> <b>to</b> <b>the</b> <b>table</b> may make many third-party security utilities--such as popup blockers and software firewalls--obsolete . That functionality may push many security ISVs to rethink their marketing strategies . 
14571	bring to the table	figuratively	I definitely agree that ease-of-use is very important if your staff is actually going to adopt the product . You might also want to consider the amount of support and expertise an vendor <b>brings</b> <b>to</b> <b>the</b> <b>table</b> , both in its library of resources , the helpfulness of its user community and its network of local experts who can provide guidance and advice . May I suggest considering Laserfiche ( www.laserfiche.com )as a suitable candidate . 
15612	bring to the table	figuratively	( I live with pride in a Quaker city that prides itself on such diversity. ) In the USA , I have seen an increasing tendency to use culturally diverse projects as art , while in fact the project is actually better termed a community project and ( in some cases ) a form of social work . This <b>brings</b> <b>to</b> <b>the</b> <b>table</b> the notion of a current breakdown of disciplines ( and subsequent crisis ) in all cultural areas . I have worked as a professional artist for over two decades . 
21582	bring to the table	figuratively	Ian Evans said that no decision had been taken on the future - its position would be considered as part of the forthcoming business planning round but in the meantime its work was continuing . The NCFSC had good links with the Neighbourhood Renewal Unit and there was good awareness of what the Fire & Rescue Service can <b>bring</b> <b>to</b> <b>the</b> <b>table</b> . Katrina said that Child Safety Week 2006 would be held in the last week of June but she would confirm exact dates . 
24859	bring to the table	figuratively	Being based on Unreal , the PC version of the game will ship with the UnrealEd editor . A nice touch that developer Taldren are <b>bringing</b> <b>to</b> <b>the</b> <b>table</b> is that the game will also feature four player co-operative play . Left : One of the two genemod characters , ' Gruber ' is built for combat . 
25036	bring to the table	figuratively	It would also help boost investor confidence which seems to have been stuck in the 2003 levels . The biggest advantage however , will be expertise in video services which the deal <b>brings</b> <b>to</b> <b>the</b> <b>table</b> . It will mean a new source of revenue from cable and telecom providers . 
41843	bring to the table	figuratively	Nathan has been a life long Blues fan . Nathan has indicated that he has a number of ideas he wishes to <b>bring</b> <b>to</b> <b>the</b> <b>table</b> to take the Trust forward . PAUL REID - Chair has followed Chester City through thick and thin for over 30 years , he realises that football clubs below the Premiership are in danger due to finances . 
43579	bring to the table	figuratively	As I set up for the presentation , the group slowly funneled into the room ... Menu Some seemed interested in what I was doing while others were visibly distant . I guess this is where we learn a lot about the skills we <b>bring</b> <b>to</b> <b>the</b> <b>table</b> . One size rarely fits all One size fits all may be true with sunglasses and socks , but when it comes to presentations , presenters need to exercise some discretion in the volume and detail of content delivered . 
45045	bring to the table	figuratively	Type of Sound that is great on radio and great Loud at gigs too ! They 've got power in their music like Creed and Foo fighters but have something new to <b>bring</b> <b>to</b> <b>the</b> <b>table</b> which rocks ! " ( Carl Kinsman , CoolFM ) 1 2 3 4 5 6 7 8 9 10 11 Track Listings : Empty Words .. ... ... ... ... ... ... ... ... ... . 
46952	bring to the table	figuratively	He has extensive experience managing large-scale teams and has also served in an Account Manager capacity . Mike also <b>brings</b> <b>to</b> <b>the</b> <b>table</b> extensive experience in systems integration , business process re-engineering and requirements analysis . Mike managed one of the largest J2EE Agile projects ever undertaken : a 75-person team that built a next-generation lease portfolio management system . 
53122	bring to the table	figuratively	The question I 'm trying to lead to is : " how can we in the ecumenical and NGO worlds share our expertise ? " How can WACC , WCC and others benefit from the expertise we <b>bring</b> <b>to</b> <b>the</b> <b>table</b> as a women 's leadership organization ? How can we in the Ecumenical movement leverage our efforts to make the ecumenical movement stronger in the 21st century ? 
53973	bring to the table	figuratively	As Mackay points out , this involves trustees taking a view not only on the employer 's ability to pay , but also its willingness . In terms of the level of knowledge and understanding that they <b>bring</b> <b>to</b> <b>the</b> <b>table</b> , having senior directors on the trustee board is certainly no bad thing . However , in the case of final salary schemes , the director may well see matters from the perspective of the company rather than the member . 
53974	bring to the table	figuratively	" It 's now recommended that there should be an independent chairman , " says Rendle . There will always be a place for directors serving as trustees , not least because of the expertise they <b>bring</b> <b>to</b> <b>the</b> <b>table</b> . While there will undoubtedly be conflicts , there is no reason why difficult situations should not be resolved . 
58679	bring to the table	figuratively	Hopefully our members will be returning very shortly . I am sure there are questions that our guests would like to put to Stephen on the issues that he has raised and perhaps also issues that they have <b>brought</b> <b>to</b> <b>the</b> <b>table</b> themselves . Could I have the first question to Stephen ? 
58948	bring to the table	figuratively	President Sir John Harvey-Jones became President of the MS Trust in November 2002 , having served as a Trustee for several years . Sir John <b>brings</b> <b>to</b> <b>the</b> <b>table</b> his huge business experience . Having a daughter with MS means that he also brings a parent 's understanding of living with MS . 
61052	bring to the table	figuratively	More of the songs on Lullabies to Paralyze are memorable . And honestly i was n't a hude fan of the yelling and screaming songs that Oliveri <b>brought</b> <b>to</b> <b>the</b> <b>table</b> . I believe this will be a candidate for best Rock album of the year . 
64525	bring to the table	figuratively	Preparing for Appraisal Most pharmaceutical companies now have a very robust appraisal system which measures not only your sales/activity performance but also your skills set . This should produce a fair evaluation of not only your performance in terms of sales and activity but also the skills that you <b>bring</b> <b>to</b> <b>the</b> <b>table</b> . These can have quite an impact when you are working on a territory with three or more people selling a particular product . 
64528	bring to the table	figuratively	" Whatever it was , she was unable to articulate it . She refused all interviews and her few private letters are banal - she often complained about the vulgarity of American film , but had few ideas of her own to <b>bring</b> <b>to</b> <b>the</b> <b>table</b> . To the director of Queen Christina ( the story of the abdication of the Swedish queen , a pet project that Garbo was very anxious about ) , she could only offer the suggestion that there should be a scene with trousers . 
71359	bring to the table	figuratively	More than anything else , we need to put full employment back at the top of the agenda , which is what we promised back in Lisbon and allowed to slip off the agenda again . Britain has things it can <b>bring</b> <b>to</b> <b>the</b> <b>table</b> . It can legitimately offer some insight into how to address full employment because we have made dramatic process in Britain in removing unemployment from the agenda and removing long-term unemployment among our people . 
72943	bring to the table	figuratively	A relationship is all about compromise . Just focus on all the good things you each <b>bring</b> <b>to</b> <b>the</b> <b>table</b> . No two people on the planet will agree all the time . 
77691	bring to the table	figuratively	If anything marks this conference it is the Alliance 's broad desire to transcend the culture of factionalism and take collective responsibility for the huge tasks we have set ourselves . Furthermore , the conciliatory habit of making formal concessions to these same affiliates regardless of what they <b>bring</b> <b>to</b> <b>the</b> <b>table</b> has also been junked . SUN : Immediately before the SA conference started , a non-aligned caucus published a number of documents proposing a " third way " . 
78018	bring to the table	figuratively	Our clients often prefer this approach as it puts the minimum of demands on their staff resource . In addition , we <b>bring</b> <b>to</b> <b>the</b> <b>table</b> a diverse range of skills not always found in the client organisation . We have the experience to successfully produce your event , from corporate team building days and conferences , to festivals , shows and concerts . 
88052	bring to the table	figuratively	SB Circus Normal - s/t ep ( Freeport ) Another rock ' n ' roll act playing three and a half minute radio friendly ditties that your Mum would probably listen to . But as Alan Sugar would say , what else do they <b>bring</b> <b>to</b> <b>the</b> <b>table</b> ? Or , as England cricket coach Duncan Fletcher would postulate , what do they bring to the party . 
88308	bring to the table	figuratively	We need to get away from the national patients voice . There are lots of organisations that can <b>bring</b> <b>to</b> <b>the</b> <b>table</b> the national patients voice depending on the issues , disease specific , population specific and so forth so I think that is a very helpful distinction and thanks for that . On the number of Patients Forums , to be honest with you I think there are too many as well . 
91063	bring to the table	figuratively	But , the first part does n't change anything . 3 ) I was n't talking about you , but in any case it bothers me when people come in talking about design and all that and they do n't have any work of their own to <b>bring</b> <b>to</b> <b>the</b> <b>table</b> . It 's like a blind shot with no way to fire back . 
91478	bring to the table	figuratively	Now all we need is an encore ! Raw Nerve Promotions : The already impressive Cousin Silas <b>bring</b> <b>to</b> <b>the</b> <b>table</b> more electro weirdness in this EP that starts with View from a room , a head messer of a piece with toybox sounds , stunguns and alien noises , blipping and dancing around . Moorgate has more expansive noises before Warlock Hill brings along a nice melody aided by progressive touches here and there which remind me of The Orb and The KLF . 
91713	bring to the table	figuratively	I used to play with him at Sheffield and we 've been in touch quite a lot this season . He 's been a coach for three years now so he 's obviously got a lot of knowledge and anything he can <b>bring</b> <b>to</b> <b>the</b> <b>table</b> will be valuable to us . When 's the last time you were in a fist fight ? 
92610	bring to the table	figuratively	All the leading experts have their own ideas about what works and what doesnt . As a parent , you have your philosophy that you <b>bring</b> <b>to</b> <b>the</b> <b>table</b> . Most of your thoughts come from what you learned as a child . 
93172	bring to the table	figuratively	If you use your Pocket PC with an accessory keyboard , you 'll find that Pocket PC 2003 offers new shortcuts to help navigation , but frankly we feel those features should have been included at least a year ago . This brings us to the two major new features that Pocket PC 2003 <b>brings</b> <b>to</b> <b>the</b> <b>table</b> . Give it a sniff of a wireless connection and the updated Connection Manager springs into life . 
93483	bring to the table	figuratively	Then there are tracks that really feel like you guys meeting halfway . JW : I had not one note of any song that I <b>brought</b> <b>to</b> <b>the</b> <b>table</b> , although the main organ riff on í‰äóìStore Bought Bonesí‰äó had sort of started life as something for Satan . Brendan had a couple of things that did n't have middle eights or did n't have lyrics . 
96167	bring to the table	figuratively	The good side of islam ? OK there are many things that Islam has <b>brought</b> <b>to</b> <b>the</b> <b>table</b> . And Islam has had a bad press . 
97021	bring to the table	figuratively	We have 7,000 software engineers working around the world to ensure software runs at its best on Intel architecture and a number of these engineers are working with companies on the operating systems to ensure they are fully optimised . This is one of the unique benefits that Intel can <b>bring</b> <b>to</b> <b>the</b> <b>table</b> when we go through a software migration such as this . Q : Do you see Itanium being used more and more in a workstation environment ? 
97476	bring to the table	figuratively	We undermine the whole project of interreligious dialogue if we collude with the idea that all religions are equally valid ways of relating to God . Interreligious dialogue requires us to <b>bring</b> <b>to</b> <b>the</b> <b>table</b> the whole of our faith and for Christians that includes our belief in the absolute uniqueness of the revelation of God in Jesus Christ . If we do not proclaim Christ is Lord of all and Prince of Peace then we come to the table of dialogue empty-handed . 
101044	bring to the table	figuratively	We will also introduce the major new features to EJB persistence , new POJO based entity beans and persistence with inheritance and polymorphism . This module gives you a head-start in understanding what the new specification <b>brings</b> <b>to</b> <b>the</b> <b>table</b> and how it affects future EJB deployments . Aspect Oriented Middleware . 
101933	bring to the table	figuratively	Our resident marine biologist Andy Rees also focuses on bass this month so that all you wannabe bass boffins can find out what really goes on beneath the waves . He also <b>brings</b> <b>to</b> <b>the</b> <b>table</b> his personal tips and tricks for targeting the species . However , shore fishing for bass has been a little tougher of late . 
104063	bring to the table	figuratively	Which he did . Only he <b>brought</b> <b>to</b> <b>the</b> <b>table</b> a scary legion of demonic moogs making this thing an effortless psychedelic Omen-like soundtrack . Play this one late at night during Halloween . 
104434	bring to the table	figuratively	I think that is a big reason why the guys wanted me in the crew too . They realized what I was going to <b>bring</b> <b>to</b> <b>the</b> <b>table</b> . And , just like them , I looked at Evidence and Rakaa the same way . 
108630	bring to the table	figuratively	She also appears on Size 's new album . Tali <b>brings</b> <b>to</b> <b>the</b> <b>table</b> her skills as a lyricist and singer , and on the night she proved to be pretty competent at both . With a mix of drum í‰äóÖn ' bass rhythms , some decent melodies , and an underlying soulful vibe she delivered a set which included several songs from her 2004 album LYRIC ON MY LIP . 
110822	bring to the table	figuratively	I think this may be due in part to the entire album being inspired by the novel " Ismael " , a good read in and of itself . Other factors include the balance that drummer Jack Irons <b>brings</b> <b>to</b> <b>the</b> <b>table</b> and the maturity of the band members at this point in their career . Highlights include " Faithful " , " MFC " , and my personal favorite , " Lowlight " . 
113493	bring to the table	figuratively	There 's a successful one for antiques ... Yeah , but there is an ocean of sites out there of every kind , some are even probably fakes . The value that eBay <b>brings</b> <b>to</b> <b>the</b> <b>table</b> is certain saftey of the experience , knowledge that most people selling stuff are really who they say they are , and so on . Froogle has a number of similar characteristics , though at the moment , the transactions do n't happen under Google 's supervision or participation . 
116558	bring to the table	figuratively	Audit committee independence and expertise One concept that experts agree will help is the enhancement of the audit committee 's independent role . " The biggest change that Sarbanes-Oxley <b>brings</b> <b>to</b> <b>the</b> <b>table</b> is the role of the audit committee , " maintains Chuck Landes , director of auditing standards with the AICPA . " All too often in the past , audit committees were rubber stamps . 
117586	bring to the table	figuratively	Do these deals suggest options for the development of an attractive new label/promoter model to benefit a wider range of artists - emerging performers as well as the bestsellers ? What could labels <b>bring</b> <b>to</b> <b>the</b> <b>table</b> to improve the live experience and generate further potential revenue streams ? A less one-off , more personalised experience for the consumer - think preview tracks , live souvenir downloads , live podcasts to those unable to attend and loyalty discounts ? 
117873	bring to the table	figuratively	Part of the Harp Song ( see our download of the week ) reminds me of what the album would have sounded like . What other influences are Echelon <b>bringing</b> <b>to</b> <b>the</b> <b>table</b> ? We have become very influenced by Can . 
119225	bring to the table	figuratively	We now know what everything is called ( once we have mastered the acronyms ) and we have the process too , even if some of the steps are a bit uncertain . Informed good judgement based on sound principles related to local circumstances is still what is needed , and this is what the best planners <b>bring</b> <b>to</b> <b>the</b> <b>table</b> . The basics for making development plans have not really changed and the role that plans play in managing development is also the same . 
132646	bring to the table	figuratively	Elected members and voluntary organisations both have powerful and complementary roles to play to meet both children 's and community needs . Members and voluntary organisations each <b>bring</b> <b>to</b> <b>the</b> <b>table</b> knowledge and understanding of local people in order to better plan services that meet local needs . No one single individual or organisation can possibly have a thorough understanding of the vast and diverse needs of local communities . 
136587	bring to the table	figuratively	Member-based MFIs in West Africa appear to be dynamic , innovative , have significant outreach , and are comparable to other MFIs in Asia and Latin America . They also <b>bring</b> <b>to</b> <b>the</b> <b>table</b> their appreciation of how to mobilise savings as a primary financial resource . In contrast , the MFIs in East Africa seem to be less involved in , and sometimes quite isolated from , the microfinance mainstream , and are making efforts to improve their position or define their future . 
140983	bring to the table	figuratively	Why should we listen to anyone í€Œ¢í‰ä‰åí‰ñin the marketí€Œ¢í‰ä‰åí‰Œ after all ? House prices in general move for macro-economic reasons , not for an analysis of local factors that are relative by nature , which is all an estate agent can <b>bring</b> <b>to</b> <b>the</b> <b>table</b> anyway . The problem is that people do listen to this twaddle , and it is them that will suffer . 
143787	bring to the table	figuratively	Roxio/Sonic 's RecordNow ! has recently been upgraded to version 7. What does this new release <b>bring</b> <b>to</b> <b>the</b> <b>table</b> ? RecordNow ! 
144299	bring to the table	figuratively	He uses foul and abusive language in front of the children , he constantly drinks and has a passion for the larger set women who frequent the store . But it is the character 's safe cracking skills that he <b>brings</b> <b>to</b> <b>the</b> <b>table</b> but this self-abusive life is starting to cloud even that . This is a tour-de-force for Thornton , as it shows that he has a real acting gift and can excel in any genre . 
144604	bring to the table	figuratively	A theme of exclusivity runs throughout Gems . Yet , while titles such as the Sega Saturn racer Sonic R and arcade brawler Sonic the Fighters are also rare , they lack the allure and development expertise Sonic CD <b>brings</b> <b>to</b> <b>the</b> <b>table</b> . Fighters is an interesting concept on paper í‰äóñ characters from the Sonic universe take to the ring sporting a number of moves lifted from their more standard adventures . 
148449	bring to the table	figuratively	The scramble to create the most realistic physics - rather than the best graphics - should lead to fresh experiences . " We think the future is all about the gameplay advanced physics can <b>bring</b> <b>to</b> <b>the</b> <b>table</b> , " says Andy Hess , director of content acquisition at Ageia . " We 'd love to see a GTA-style game with fully destructible environments , but what is required is advanced simulation technology to procedurally fracture and break the building apart . 
148599	bring to the table	figuratively	You ca n't make a console unless you 're Sega or Nintendo , they said . I liked what the Playstation <b>brought</b> <b>to</b> <b>the</b> <b>table</b> , I got one , and the rest is history . Sony went on to bring gaming to the mass market with the PlayStation , and the PlayStation 2 has almost completely defined its generation of gaming . 
149734	bring to the table	figuratively	What will you <b>bring</b> <b>to</b> <b>the</b> <b>table</b> ? JONAP is a new type of construction company , working on new-build , refurbishment and interior fit-out projects , as well as pre-construction planning and procurement . 
154296	bring to the table	figuratively	The campaign map in Imperial Glory is more medieval than Rome however , being tile-based . There are no mountain paths to block , no bridges to control. it eliminates a lot of the tactical subtleties that Rome <b>brought</b> <b>to</b> <b>the</b> <b>table</b> and reinforces the wall between the two sides of strategy games that had started to be knocked down . There are other quirks , like the fact that you can only build units in your capitals , and soldiers in the field consume food . 
161445	bring to the table	figuratively	Inclusive of all services , agencies - Participation in IO activities integrates political leaders , civilian agencies , non-governmental agencies , as well as military services . Public information practitioners need to grasp the range of interests and approaches that each participant <b>brings</b> <b>to</b> <b>the</b> <b>table</b> . Conclusions Information is a means to breathe the fresh air of truth into the public discourse in a democratizing nation . 
161557	bring to the table	figuratively	Do not be distracted by the mention of two other candidates , you do n't know anything about them and they could be fictitious . Focus on what strengths you <b>bring</b> <b>to</b> <b>the</b> <b>table</b> . These should be consistent with the four things most employers are looking for in candidates during the job interview : competence , professionalism , enthusiasm , and likability . 
163546	bring to the table	figuratively	Of course , it is naí€Œ¿ve to think that distributors exist without making a margin on the products they sell . But equally , it is naive to ignore the value that distributors <b>bring</b> <b>to</b> <b>the</b> <b>table</b> . Unit cost should always be a point of negotiation , but do n't let it distract from the hidden cost of delivering your order to site , on time and in full . 
166081	bring to the table	figuratively	All had a clear picture of the advantages , disadvantages and potential pitfalls of piloting . I am indebted to them for the cogent ideas and arguments they <b>brought</b> <b>to</b> <b>the</b> <b>table</b> and for their later criticisms and proposed edits of early drafts . This report comes from the full Panel . 
25990	bring to the table	literally	The carrier is n't a particularly effective thing for bringing round someones house of an evening , as there 's no way to close the top and hold the chips in place and it 's pretty heavy . It 's more to hold the chips nice in a cupboard or something and <b>bring</b> <b>to</b> <b>the</b> <b>table</b> for a game . Nice that it 's wood with a brass handle , makes it look far better quality than something made of plastic . 
41555	bring to the table	literally	Door prizes were handed out and photos from the car show were on display for pickup . I lost count of the number of courses of Chinese food that were <b>brought</b> <b>to</b> <b>the</b> <b>tables</b> . Once dinner was finished the awards presentation began , complete with a real Canadian Mounted Police officer ( a.k.a . 
47292	bring to the table	literally	Conservative Moroccans may not entertain mixed-sex groups. í‰äó¢ Shake everyone 's hand individually . Table manners : í‰äó¢ Food is generally served at a knee-high round table. í‰äó¢ The guest of honour generally sits next to the host. í‰äó¢ A washing basin will be <b>brought</b> <b>to</b> <b>the</b> <b>table</b> before the meal is served . Hold your hands over the basin while water is poured over them . 
58227	bring to the table	literally	" [ 10 ] Eggs The Easter egg is often said to be a symbol of Eostre and this ' fact ' is used as ' evidence ' that Eostre was a fertility goddess . According to the Catholic Encyclopedia , " Because the use of eggs was forbidden during Lent , they were <b>brought</b> <b>to</b> <b>the</b> <b>table</b> on Easter Day , coloured red to symbolize the Easter joy . This custom is found not only in the Latin but also in the Oriental Churches . 
63362	bring to the table	literally	The food choice was made easy for us when we were presented with the í‰äóÖlunch menu ' . How long we were going to take over lunch was also decided for us when we realised there were no starters , although bread and olive oil were <b>brought</b> <b>to</b> <b>the</b> <b>table</b> by a slightly brusque waitress . We were rather alarmed to find that every offering had more letters after its name than an Oxford academic . 
74658	bring to the table	literally	We had already ordered some food and were going to pay for what we had consumed so far but leave to go to Adams Cafe , when the owner came over and asked if there was a problem . We said we wanted to leave and would pay for what had been <b>brought</b> <b>to</b> <b>the</b> <b>table</b> already . He then told us we should leave now , we were barred from the restaurant and we were now trespassing . 
87027	bring to the table	literally	8. To serve , arrange the pork pieces over the carrots , cabbage and mushrooms . Ladle over the cooking liquor , and scatter with the crisp-fried spring greens before <b>bringing</b> <b>to</b> <b>the</b> <b>table</b> . 
98473	bring to the table	literally	Lobster omelette Thermidor ( í‰Œ£ 9.00 ) scored ten out of ten for flavour and tenderness of the lobster , but it was neither omelette nor Thermidor , unless your interpretation of either genre is hugely liberal . It was <b>brought</b> <b>to</b> <b>the</b> <b>table</b> in an attractive little pan - sensuously gooey , in texture more like a softly scrambled egg or even a savoury brulí€Œ©e . I was told that this is currently their favourite dish . 
98913	bring to the table	literally	-The guest of honour generally sits next to the host . - A washing basin will be <b>brought</b> <b>to</b> <b>the</b> <b>table</b> before the meal is served . Hold your hands over the basin while water is poured over them . 
101559	bring to the table	literally	The wine waiter should be charming and helpful , without making you feel a rank amateur ; certainly not playing on your insecurity so as to order a wine three times as expensive as you can really afford . The food will be <b>brought</b> <b>to</b> <b>the</b> <b>table</b> to the correct people without vulgar cries of " Whose was the confit of pig 's bum ? " , and waiters will not hover about mumbling the formulaic chant " Is everything alright sir ? 
103625	bring to the table	literally	Now , this particular wine was an Australian wine and I 've had a lot of experience with it . When it was opened and <b>brought</b> <b>to</b> <b>the</b> <b>table</b> , you could smell from two foot away that it was corked and it was gone . But that conversation went on with our server for about 45 minutes while he was trying to convince me that it was the chestnut undertone and the waft of blackberry that I could smell . 
105615	bring to the table	literally	Heat the brandy in a small pan and then ignite with a match . Pour over the Christmas pudding and <b>bring</b> <b>to</b> <b>the</b> <b>table</b> immediately . Serve into warmed serving bowls and hand around the boozy cream separately so that everyone can help themselves . 
109625	bring to the table	literally	Once seated were we greeted by a selection of cold Mezza ; Hummus , Tzatsiki , Taramasalata and a red bean salad with a bowl of pita bread and olives . Also four large Mediterranean Prawns were <b>brought</b> <b>to</b> <b>the</b> <b>table</b> with large chunks of lemon . Lovely ! 
111904	bring to the table	literally	All the time you were watching Jesus while he sat quietly in the shadows listening to the idle chatter , watching the disciple 's gestures and from time to time telling illusive stories about strange lands . As the night progressed bread and wine was <b>brought</b> <b>to</b> <b>the</b> <b>table</b> . It was only then that Jesus sat forward so that the shadows no longer covered his face . 
124843	bring to the table	literally	' says Freddie , 3. ' OK... no hands , no cake... ' Hands are washed . Flour and sugar are <b>brought</b> <b>to</b> <b>the</b> <b>table</b> . The butter alarm goes off in my head . 
132898	bring to the table	literally	This is an old tradition that prevents the cards being marked or doctored before or during play . Between rounds any player may call for more cards to be <b>brought</b> <b>to</b> <b>the</b> <b>table</b> and a fresh pack must be opened in front of everybody . By tradition the player who calls for fresh cards must pay for them but it helps to have a couple of unopened packs in the house . 
2433	carry a lot of weight	figuratively	If possible , take them to the site you 're trying to save so they can see for themselves what 's at stake . 5 EXPERTS Expert opinion can <b>carry</b> <b>a</b> <b>lot</b> <b>of</b> <b>weight</b> and add credibility to your campaign . To support your cause , seek out experts in relevant subjects who may be prepared to give evidence on your behalf - traffic and safety experts or environmentalists,for example . 
12981	carry a lot of weight	figuratively	Alternatively , you might like to ask for a Family Group Conference as while it would involve the paternal Nan and the brother amongst others , they are very good at making everyone focus on what is really best for the children involved . If SS and/or the FGC then supported an adoption application , it would <b>carry</b> <b>a</b> <b>lot</b> <b>of</b> <b>weight</b> in court . I agree with the need for eternal youth in this role . 
20061	carry a lot of weight	figuratively	Not too sure here . Your public domain dedication should involve a statement to waive moral rights ( though whether this would be valid is an interesting question -- one would certainly imagine it would <b>carry</b> <b>a</b> <b>lot</b> <b>of</b> <b>weight</b> with a judge ) Public Domain Dedications in Europe Qu : Creative Commons provide an online form to help dedicate work to the Public Domain . Is such work considered Public Domain in the UK ? 
30138	carry a lot of weight	figuratively	A top class horse who also finished runner up in last years Gold Cup . Hedgehunter has the form and the experience but is sure to <b>carry</b> <b>a</b> <b>lot</b> <b>of</b> <b>weight</b> once again . 
31618	carry a lot of weight	figuratively	But on the Web , good copy has two clear , easily understood objectives : It elevates your search engine rankings , and it attracts qualified traffic and holds the attention of your prospects and customers . On the Web , your words <b>carry</b> <b>a</b> <b>lot</b> <b>of</b> <b>weight</b> . Fortunately , you can build verbal muscle , fast . 
48303	carry a lot of weight	figuratively	Yoko Kanno 's score is channelled nicely and plays a large part in the series as it plays throughout much of each episode , as it does so a lot of tension is added to not only the action but also heavy dialogue induced scenes . Gunfire and explosions <b>carry</b> <b>a</b> <b>lot</b> <b>of</b> <b>weight</b> and whiz from front to rear speakers , along with a great assortment of atmospheric sounds . As far as I can tell the problem which plagued the R1 release is not present here . 
48625	carry a lot of weight	figuratively	If not you can arrange your funeral on easy terms. thirdcrank Posted:Thursday , 02 November 2006 19:00 AT You can , of course , use any admissible evidence you feel may assist your case . The HC is approved by Parliament and so <b>carries</b> <b>a</b> <b>lot</b> <b>of</b> <b>weight</b> . That is why the CTC camapigned so hard earlier this year over the wording . 
59943	carry a lot of weight	figuratively	Which is exactly like life , more or less . If there 's only one person in a situation , that person 's energy and decisions <b>carry</b> <b>a</b> <b>lot</b> <b>of</b> <b>weight</b> . If there are two people in a situation , decisions have to be shared . 
73148	carry a lot of weight	figuratively	He is young and impressionable , and I 'm sure most of the readers can relate to him , and put themselves in his shoes . Captain Flint , who 's character is not actually in the book still <b>carries</b> <b>a</b> <b>lot</b> <b>of</b> <b>weight</b> as an evil villain . Other characters not mentioned like the Doctor , Captain Smollett , and the Squire are quite honorable and hold their own throughout the story . 
73347	carry a lot of weight	figuratively	This is important . The politics of the senior stewards , who are well respected and have won their spurs in hard times , <b>carry</b> <b>a</b> <b>lot</b> <b>of</b> <b>weight</b> . There are disagreements , but these are suppressed in a display of unity , not expressed in real debate to dockers and supporters . 
76290	carry a lot of weight	figuratively	They will then make a recommendation to the judge . Their reports <b>carry</b> <b>a</b> <b>lot</b> <b>of</b> <b>weight</b> and it is important to co-operate fully with their enquiries . It is usual to have a review hearing once the court welfare officer report has been sent to the court and to the parties . 
77701	carry a lot of weight	figuratively	An Academy Award is essentially a recommendation from a recognised source that this person 's work is worth watching which carries alot of weight in an audience 's eyes . There are certain awards that <b>carry</b> <b>a</b> <b>lot</b> <b>of</b> <b>weight</b> both inside the film industry and to a film 's potential audience . The most famous and possibly the most prestigious accolade being an American Academy Award or Oscar . 
78853	carry a lot of weight	figuratively	I think this post will tip me over into the " member " category , I find that appropriate . Ursula Atkins Done - Marc Ceulemans - Bruxelles - Belgium A form letter from Indiana is n't gonna <b>carry</b> <b>a</b> <b>lot</b> <b>of</b> <b>weight</b> . Yes , I am fully aware of the historic significance of Brooklands , but for better or ill , economic viability is the only persuasive argument to The Powers That Be ( whomsoever they may be at the time ) . 
101447	carry a lot of weight	figuratively	Top among those influential men were Robert Johnson and a Mr. Brewster of Republic Aviation . Republic <b>carried</b> <b>a</b> <b>lot</b> <b>of</b> <b>weight</b> at that time because they were at the cutting edge of high speed fighter development . In fact , research then going on at Republic would lead directly to the F-105 Thunderchief which gained great fame during the Vietnam war a decade later . 
109287	carry a lot of weight	figuratively	But it is not just motor cars at Sky . Believe us , we <b>carry</b> <b>a</b> <b>lot</b> <b>of</b> <b>weight</b> with our approach to Ford Commercials for the businessman - large or small . Star of the commercials vehicles line up is the all new Ford Transit Connect , which takes owning one of these vehicles up to a new level . 
136655	carry a lot of weight	figuratively	Although the group of scientists would n't be empowered to make the final decision , their recommendations were to go to the President if they decided that the UFO 's were real . And any recommendations made by the group of names we planned to assemble would <b>carry</b> <b>a</b> <b>lot</b> <b>of</b> <b>weight</b> . In the Pentagon and at ATIC book was being made on what their recommendations would be . 
142169	carry a lot of weight	figuratively	" Local authorities are concerned . The HSE <b>carries</b> <b>a</b> <b>lot</b> <b>of</b> <b>weight</b> in courts and tribunals , " said Lee Marshall , the chairman of the Local Authority Recycling Advisory Committees . The most widely-used recycling box , a 55 litre capacity model , weighs 22.1kg when filled with a 50-50 mix of glass and paper . 
165751	carry a lot of weight	figuratively	But it is uncontroversial to say that the " culture " of civil partner households may evolve differently to the historically ingrained " culture " of marriage . Evidence that one of the civil partners is seeking legal advice about a dissolution should <b>carry</b> <b>a</b> <b>lot</b> <b>of</b> <b>weight</b> . A letter from you will very often swing such a case decisively in the client 's favour . 
118424	carry a lot of weight	literally	Back in the un-saddling enclosure Nicky , as the rest of us , was sorely disappointed yet slightly perplexed at the result . Yes , we were <b>carrying</b> <b>a</b> <b>lot</b> <b>of</b> <b>weight</b> and 5lbs more than at Newbury and on much quicker ground but this would not have been enough to explain it . Especially bearing in mind that the horse that came second - At Your Request - we beat last time out and carrying the same weight difference . 
125873	carry a lot of weight	literally	" We wanted him to pick the ball up deep and run at the defence and get a bit of excitment generated . " People were making comments about Carlos when he came on because he <b>carries</b> <b>a</b> <b>lot</b> <b>of</b> <b>weight</b> and in the shirt he probably looks overweight , but he is quite trim , " he reflected . " I do n't think we need to change his body shape like we did with Dean Ashton , that was different . 
3125	come in from the cold	figuratively	Also in this section Be your own boss - at a price Are exit fees on the way out ? Muslim-friendly mortgages could turn out to be costly No such thing as a free survey The borrowers who <b>came</b> <b>in</b> <b>from</b> <b>the</b> <b>cold</b> : freelancers on a home run 
3601	come in from the cold	figuratively	Report 02 Key articles in the current issue of Report include : Health visitors : <b>Coming</b> <b>in</b> <b>from</b> <b>the</b> <b>cold</b> ? Health visiting , having been in the doldrums for years , has been dragged back into the limelight by the government 's new public health strategy - at least in England . 
8191	come in from the cold	figuratively	As long as you could cope if rates were to rise , you should be able to protect yourself if the worst does happen. m.bien@ independent.co.uk Also in this section Be your own boss - at a price Are exit fees on the way out ? Muslim-friendly mortgages could turn out to be costly No such thing as a free survey The borrowers who <b>came</b> <b>in</b> <b>from</b> <b>the</b> <b>cold</b> : freelancers on a home run 
9535	come in from the cold	figuratively	Russia 's barometer shows a country fast <b>coming</b> <b>in</b> <b>from</b> <b>the</b> <b>cold</b> . ' Moscow has changed . 
10363	come in from the cold	figuratively	Answers when this column returns in the new year. jd@ intelligent-investor.co.uk Also in this section Be your own boss - at a price Are exit fees on the way out ? Muslim-friendly mortgages could turn out to be costly No such thing as a free survey The borrowers who <b>came</b> <b>in</b> <b>from</b> <b>the</b> <b>cold</b> : freelancers on a home run 
13168	come in from the cold	figuratively	Also in this section Are exit fees on the way out ? Muslim-friendly mortgages could turn out to be costly No such thing as a free survey The borrowers who <b>came</b> <b>in</b> <b>from</b> <b>the</b> <b>cold</b> : freelancers on a home run Esther Shaw : Sellers ' packs are a long way from home and dry 
17188	come in from the cold	figuratively	And those taking out new mortgages should study the small print before taking a loan . Also in this section Muslim-friendly mortgages could turn out to be costly No such thing as a free survey The borrowers who <b>came</b> <b>in</b> <b>from</b> <b>the</b> <b>cold</b> : freelancers on a home run Unlock your spending power Esther Shaw : Sellers ' packs are a long way from home and dry 
23620	come in from the cold	figuratively	John 1 : 13 agrees that we were created because of His decision and no matter what the circumstances of our birth are . He wants us to choose to come back to perfect relationship with Him , just as He intended and has longed for since the dawn of time - to <b>come</b> <b>in</b> <b>from</b> <b>the</b> <b>cold</b> and be found where we belong . 
24600	come in from the cold	figuratively	The civil servant who <b>came</b> <b>in</b> <b>from</b> <b>the</b> <b>cold</b> Richard Beddard 17.05.06 The Private Finance Initiative , privatisation and efficiency : Trevor Woolley , financial director of the MoD , says like any good organisation , his department is focusing on its core business . Extreme p/e Richard Beddard 24.04.06 Keith Anderson , a researcher at Reading University , says he 's discovered how to turbocharge the venerable price earnings ratio . 
25523	come in from the cold	figuratively	Chili Heated Waiscoats Designed originally for bikers , these are lightweight , machine washable , low power consumption and made in the UK . Firebird UK Clothing Catalog Hang glider pilots know how to <b>come</b> <b>in</b> <b>from</b> <b>the</b> <b>cold</b> . Some interesting looking products to buy online here . 
26887	come in from the cold	figuratively	We would like to put a British side out . " Forgotten man Albert Luque will <b>come</b> <b>in</b> <b>from</b> <b>the</b> <b>cold</b> in Sicily on Thursday night as Newcastle attempt to ease towards the knockout stages of the UEFA Cup . The 28-year-old Spaniard is the main beneficiary of an injury crisis which has wrecked manager Glenn Roeder 's plans for the tie against Palermo . 
29043	come in from the cold	figuratively	So , let 's hope those letters from the FSA do n't fall on stony ground , and we can at last see an end to customer disservice. s.dunn@ independent.co.uk Also in this section Be your own boss - at a price Are exit fees on the way out ? Muslim-friendly mortgages could turn out to be costly No such thing as a free survey The borrowers who <b>came</b> <b>in</b> <b>from</b> <b>the</b> <b>cold</b> : freelancers on a home run 
34220	come in from the cold	figuratively	As with any mortgage , the advice is to read the small print and make sure you know what you are committing yourself to - before you actually do so. m.bien@ independent.co.uk Also in this section Be your own boss - at a price Are exit fees on the way out ? Muslim-friendly mortgages could turn out to be costly No such thing as a free survey The borrowers who <b>came</b> <b>in</b> <b>from</b> <b>the</b> <b>cold</b> : freelancers on a home run 
34892	come in from the cold	figuratively	Call 0800 085 3250 or go to www.unbiased.co.uk Also in this section Be your own boss - at a price Are exit fees on the way out ? Muslim-friendly mortgages could turn out to be costly No such thing as a free survey The borrowers who <b>came</b> <b>in</b> <b>from</b> <b>the</b> <b>cold</b> : freelancers on a home run 
35817	come in from the cold	figuratively	Source : Savills Private Finance Also in this section Be your own boss - at a price Are exit fees on the way out ? Muslim-friendly mortgages could turn out to be costly No such thing as a free survey The borrowers who <b>came</b> <b>in</b> <b>from</b> <b>the</b> <b>cold</b> : freelancers on a home run 
39343	come in from the cold	figuratively	It requires patience and a larger perspective . Oddly enough , another " rogue " state Libya is slowly <b>coming</b> <b>in</b> <b>from</b> <b>the</b> <b>cold</b> , thanks to Muammar Gaddafi 's ability to read the signals of the post-Sept . 11 world . 
41090	come in from the cold	figuratively	Please send copies , not originals Also in this section Be your own boss - at a price Are exit fees on the way out ? Muslim-friendly mortgages could turn out to be costly No such thing as a free survey The borrowers who <b>came</b> <b>in</b> <b>from</b> <b>the</b> <b>cold</b> : freelancers on a home run 
43003	come in from the cold	figuratively	Within a few years , seizures of illicit stills were down to a few hundred . At Edradour , local farmers decided to <b>come</b> <b>in</b> <b>from</b> <b>the</b> <b>cold</b> , and in 1825 , set up a distilling co-operative in the same huddle of stone buildings where Edradour is made today . The minimum legal still size was now 40 gallons , and that was the still size the farmers chose ; the size we continue to use to this day . 
43250	come in from the cold	figuratively	The Mann who <b>came</b> <b>in</b> <b>from</b> <b>the</b> <b>cold</b> UK Press 1976 So how come Manfred Mann gets the big freeze when promoters work out those big festival line-ups ? It 's a situation which continues to embitter the Mann who 's currently high in both the single and album charts on Bronze with Blinded by the Light and Roaring Silence . 
44286	come in from the cold	figuratively	For most of them , the attraction lies not just in the shooting itself , but the day spent striding over the hills , watching their dogs at work and enjoying the camaraderie that is part and parcel of shooting . Now , perhaps , the sport may be <b>coming</b> <b>in</b> <b>from</b> <b>the</b> <b>cold</b> . Recently , for the first time , Scottish Enterprise joined up with the national tourist board , VisitScotland , to promote it . 
55385	come in from the cold	figuratively	Wine Online the UK Wine guide Wine Online South African Tasting After the celebrations - the hangover ! It did n't take long for the initial euphoria , as South Africa <b>came</b> <b>in</b> <b>from</b> <b>the</b> <b>cold</b> , to damp down a little . Hopes that the winemakers would conquer their world as effortlessly as their rugby and cricketing peers conquered theirs have proved that much harder to realise . 
57515	come in from the cold	figuratively	They know when to freeze their best asset ! It 's the mighty bite , of Commonwealth delight , every season of the year Tenderly-kept secrets succulently unfold , when Cook 's finest discovery <b>comes</b> <b>in</b> <b>from</b> <b>the</b> <b>cold</b> Freshly frozen , enjoyed the most , New Zealand lamb really rules the roast ! New ' Zeal and ' quality , no less , is the ' Kiwi ' unlock the tenderness From North Island or South it melts in the mouth ! 
57588	come in from the cold	figuratively	Also in this section Are exit fees on the way out ? No such thing as a free survey The borrowers who <b>came</b> <b>in</b> <b>from</b> <b>the</b> <b>cold</b> : freelancers on a home run Unlock your spending power Esther Shaw : Sellers ' packs are a long way from home and dry 
59977	come in from the cold	figuratively	The car that thinks it 's a butler The new auto-adjusting Jaguar S-type just ca n't seem to do enough for you . The car that <b>came</b> <b>in</b> <b>from</b> <b>the</b> <b>cold</b> The Astra has entered middle age looking svelte , lithe - and actually rather up for it . It 's a Volvo , Sven , but not as you know it Funky console , dynamic bodywork - the new S40 offers safety with style . 
60546	come in from the cold	figuratively	Buy Ali online Not surprisingly , Ali memorabilia is big business . Comment Football <b>comes</b> <b>in</b> <b>from</b> <b>the</b> <b>cold</b> It 's been a bad month for the beautiful game - but football remains a great unifier , says Jason Cowley . The OSM 10 The 10 ... ...best football dives . 
60733	come in from the cold	figuratively	( Nov . 1978 ) P.E.J. Hammer An Elizabethan spy who <b>came</b> <b>in</b> <b>from</b> <b>the</b> <b>cold</b> : the return of Anthony Standen to England in 1593. lxv . 277-95 . 
60939	come in from the cold	figuratively	If you would like a financial makeover , write to Sam Dunn at The Independent on Sunday , Independent House , 191 Marsh Wall , London E14 9RS , or email s.dunn@ independent.co.uk Also in this section Be your own boss - at a price Are exit fees on the way out ? Muslim-friendly mortgages could turn out to be costly No such thing as a free survey The borrowers who <b>came</b> <b>in</b> <b>from</b> <b>the</b> <b>cold</b> : freelancers on a home run 
62887	come in from the cold	figuratively	Joyner is as mercurial a songwriter and performer as one is likely to find . He 's a true outsider ; he not only wo n't <b>come</b> <b>in</b> <b>from</b> <b>the</b> <b>cold</b> , but he ca n't ; he 's gone too far by now . And the nebulous edge he walks , crawls , and stumbles upon is the blood-red stiletto of the human heart . 
70253	come in from the cold	figuratively	" Consumer Credit Counselling Service 0800 138 1111 ; Debtline 0808 808 4000 Also in this section Are exit fees on the way out ? Muslim-friendly mortgages could turn out to be costly No such thing as a free survey The borrowers who <b>came</b> <b>in</b> <b>from</b> <b>the</b> <b>cold</b> : freelancers on a home run 
72837	come in from the cold	figuratively	Urban Legends : Moscow Russian cinema in the 20s was expected to shape the new Soviet citizens . Julian Graffy surveys the writhing city it depicts and the unexpected tastes of the audiences who <b>came</b> <b>in</b> <b>from</b> <b>the</b> <b>cold</b> . Blood of a Poet Exiled gay Cuban poet Reinaldo Arenas loved sex and writing . 
77967	come in from the cold	figuratively	" Oliver Duff Also in this section Be your own boss - at a price Are exit fees on the way out ? Muslim-friendly mortgages could turn out to be costly No such thing as a free survey The borrowers who <b>came</b> <b>in</b> <b>from</b> <b>the</b> <b>cold</b> : freelancers on a home run 
80544	come in from the cold	figuratively	It seems to have been something of an epic affair- in effect putting offshore renewable energy firmly on the political agenda- and , in particular , resuscitating wave energy . Certainly , the underlying feeling was that wavepower is <b>coming</b> <b>in</b> <b>from</b> <b>the</b> <b>cold</b> . There was talk of a whole new series of demonstration schemes . 
84432	come in from the cold	figuratively	Hardware Features 42 Hot Heads If you 're not that flush , but you need a printer , stay cool and go thermal . Peter Green <b>comes</b> <b>in</b> <b>from</b> <b>the</b> <b>cold</b> to consider the hottest ones around . Alphacom 32 ( Dean Electronics ) Brother HR-5 ( Brother ) Epson-40 ( Epson UK ) Floyd 40 ( Shive Instruments ) Programming 20 Pic ' n ' Mix Pick up a handful of your old screen pics and mix them together to create some stunning new visuals . 
84511	come in from the cold	figuratively	Then , even if the case does end up in court , as it did for Mr Evans , at least you can defend your actions - something you ca n't do if you hide your head in the sand and do nothing. m.bien@ independent.co.uk Also in this section Be your own boss - at a price Are exit fees on the way out ? Muslim-friendly mortgages could turn out to be costly No such thing as a free survey The borrowers who <b>came</b> <b>in</b> <b>from</b> <b>the</b> <b>cold</b> : freelancers on a home run 
84602	come in from the cold	figuratively	We get hurt and we just panic And we strike out , out of fear ... . But all we all ever wanted was just to <b>come</b> <b>in</b> <b>from</b> <b>the</b> <b>cold</b> " . AUDRE LORDE WRITER , POET & ACTIVIST . 
91806	come in from the cold	figuratively	I just hope that 's not too late. e.shaw@ independent.co.uk Also in this section Are exit fees on the way out ? Muslim-friendly mortgages could turn out to be costly No such thing as a free survey The borrowers who <b>came</b> <b>in</b> <b>from</b> <b>the</b> <b>cold</b> : freelancers on a home run 
94625	come in from the cold	figuratively	If you think you may be one of these , act quickly ; many lenders have imposed time limits on claims. www.which.net/endowmentaction ; www.financial-ombudsman.org.uk Also in this section Be your own boss - at a price Are exit fees on the way out ? Muslim-friendly mortgages could turn out to be costly No such thing as a free survey The borrowers who <b>came</b> <b>in</b> <b>from</b> <b>the</b> <b>cold</b> : freelancers on a home run 
97741	come in from the cold	figuratively	However such evidence is sometimes denied unless supported by a rationale that the individual finds plausible . The past few years have seen acupuncture ' <b>come</b> <b>in</b> <b>from</b> <b>the</b> <b>cold</b> ' , in terms of Western scientific comprehension . My own field , homeopathy , remains out in the cold - but it is shocking , and anti-scientific , that many commentators deny that the clinical research evidence for homeopathy is positive , simply because they ca n't understand how it works . 
102820	come in from the cold	figuratively	We could safeguard the security of undercover operations , while ensuring the Secret Services stay within the law . If the spy could <b>come</b> <b>in</b> <b>from</b> <b>the</b> <b>cold</b> , we would love the spy . Water Meters í‰äóñ Your choice ? 
109240	come in from the cold	figuratively	Should you be planning for days in sunnier and more tax-efficient climes ? See also <b>Coming</b> <b>in</b> <b>from</b> <b>the</b> <b>cold</b> How do you make sure , when you are finally ready to return , the tax man is n't ready to pounce Why become an exile The idea of keeping your money from the taxman by upping sticks and living abroad sounds glamorous . But you need to plan carefully if you want to become a tax exile Is becoming a tax exile for you ? 
109715	come in from the cold	figuratively	Wall Street 's appetite for such financial chimeras is growing at what seems an exponential rate . Last week , cash inflows into Exchange-Traded Funds exceeded US equity mutual fund inflows for the first time that I can recall - and this during a week when over $ 1.3 billion <b>came</b> <b>in</b> <b>from</b> <b>the</b> <b>cold</b> of the money market to the stock market sauna ! Moreover , such a flood of funds into GLD will be a vindication of the idea of ' paper gold ' , at least in the short term . 
110944	come in from the cold	figuratively	Richard Shone , ( editor ) , ( 1999 ) , " The Art of Bloomsbury " , Tate Gallery Publications , 296 pages , ISBN 1 85437 296 3 ( hardback)/1 85437 285 8 ( paperback ) . Press cuttings Bloomsbury <b>comes</b> <b>in</b> <b>from</b> <b>the</b> <b>cold</b> by Maev Kennedy in The Guardian , 25th . June , 1999 , page 12 . 
111619	come in from the cold	figuratively	The RES conference certainly presented some highly relevant research , but a fascination bordering on obsession with technique was never far from the surface . Until economists focus more on the actual findings of their research - and why they matter - they will remain a long way from <b>coming</b> <b>in</b> <b>from</b> <b>the</b> <b>cold</b> . 
112822	come in from the cold	figuratively	Security officer , Alan Turner , is sent to locate both . Spy who <b>came</b> <b>in</b> <b>from</b> <b>the</b> <b>cold</b> . For world weary Alec Leamas the spying business has become an enclosed world , detached from reality - he 's seen his last agent shot while attempting to cross the Berlin Wall , his death marking the end of the Circus ' East German network . 
113558	come in from the cold	figuratively	To find out , go to www.switchwithwhich.co.uk Also in this section Be your own boss - at a price Are exit fees on the way out ? Muslim-friendly mortgages could turn out to be costly No such thing as a free survey The borrowers who <b>came</b> <b>in</b> <b>from</b> <b>the</b> <b>cold</b> : freelancers on a home run 
115972	come in from the cold	figuratively	It looks cooler and has more toys , but it 's significantly more expensive and not quite such an engaging drive . The BMW 7-series has <b>come</b> <b>in</b> <b>from</b> <b>the</b> <b>cold</b> , no doubt about that , but for me the Jaguar still rules the class . The rivals AUDI A8 3.0 TDi QUATTRO SE , í‰Œ£ 48,365 Four-wheel drive is a benefit in poor weather , and the A8 has a weight advantage thanks to aluminium construction . 
120699	come in from the cold	figuratively	" Genevieve Roberts Also in this section Be your own boss - at a price Are exit fees on the way out ? Muslim-friendly mortgages could turn out to be costly No such thing as a free survey The borrowers who <b>came</b> <b>in</b> <b>from</b> <b>the</b> <b>cold</b> : freelancers on a home run 
121756	come in from the cold	figuratively	Achieving an orthodox career at last , he seems to become more orthodox than the orthodox , compensating for past rejections in his new conformism . A sympathetic view is that he had <b>come</b> <b>in</b> <b>from</b> <b>the</b> <b>cold</b> , later than he should have done , repairing his betrayal of trust by a commitment to the coming world of Protestant dominance . A sympathetic view takes into account the agonies of Catholic persecution and the irrelevance of dogma to a genuine loving Christianity . 
123669	come in from the cold	figuratively	For further information , see the Government-backed website www.lease-advice.org / Also in this section Be your own boss - at a price Are exit fees on the way out ? Muslim-friendly mortgages could turn out to be costly No such thing as a free survey The borrowers who <b>came</b> <b>in</b> <b>from</b> <b>the</b> <b>cold</b> : freelancers on a home run 
126194	come in from the cold	figuratively	STEVE GROOM ( 1974-81 ) Among those who have contacted the school by e-mail in recent weeks is Steve Groom ( 1974-81 ) . He writes : Just noticed there is an e-mail address for the Old Pharosians so thought I 'd " <b>come</b> <b>in</b> <b>from</b> <b>the</b> <b>cold</b> " . I 've really enjoyed receiving the newsletter for the past 16 years , but have not written in the past . 
126599	come in from the cold	figuratively	If you would like a financial makeover , write to Melanie Bien at The Independent on Sunday , Independent House , 191 Marsh Wall , London E14 9RS , or email m.bien@ independent.co.uk Also in this section Be your own boss - at a price Are exit fees on the way out ? Muslim-friendly mortgages could turn out to be costly No such thing as a free survey The borrowers who <b>came</b> <b>in</b> <b>from</b> <b>the</b> <b>cold</b> : freelancers on a home run 
126654	come in from the cold	figuratively	Articles in this October 2005 issue : Question And Answer Travel and Advertising Scam European E-Marketplaces Libyan Relations With Europe Trading Problems Report 2006 - the European Year of Workers ' mobility Consultations Information Roundup Libyan Relations With Europe Libya is <b>coming</b> <b>in</b> <b>from</b> <b>the</b> <b>cold</b> . Here , Peter Matthews investigates Libyas new relations with Europe . 
132689	come in from the cold	figuratively	Was it ever there ? If it was , can we reclaim it and <b>come</b> <b>in</b> <b>from</b> <b>the</b> <b>cold</b> ? How can a woman , discouraged by the misogyny of most religions , begin to find a meaningful path ? 
142343	come in from the cold	figuratively	Now many astrologers seem to have a hankering , a hunger even , for scientific respectability that never fails to amaze me . The motive is entirely understandable : after three hundred and fifty years or so , you want to <b>come</b> <b>in</b> <b>from</b> <b>the</b> <b>cold</b> . But there is more than one way to do so , and this is a particularly hopeless and self-destructive one to choose . 
143298	come in from the cold	figuratively	Unless you are sure you have other arrangements in place to cover the shortfall , treating any mis-selling payout as a windfall is risky indeed. www.fsa.gov.uk/consumer/01_ WARNINGS/endowments/mn_endowment.html Also in this section Be your own boss - at a price Are exit fees on the way out ? Muslim-friendly mortgages could turn out to be costly No such thing as a free survey The borrowers who <b>came</b> <b>in</b> <b>from</b> <b>the</b> <b>cold</b> : freelancers on a home run 
159761	come in from the cold	figuratively	Affordable-housing websites : www.firstrungnow.com , www.keyworkerliving.co.uk , www.keyworker-homes.co.uk Also in this section Be your own boss - at a price Are exit fees on the way out ? Muslim-friendly mortgages could turn out to be costly No such thing as a free survey The borrowers who <b>came</b> <b>in</b> <b>from</b> <b>the</b> <b>cold</b> : freelancers on a home run 
164009	come in from the cold	figuratively	News - May 2004 27 May 2004 Sensor technology <b>comes</b> <b>in</b> <b>from</b> <b>the</b> <b>cold</b> The response of glaciers to global warming is an important element in understanding climate change , involving sea-level change and changes to the thermohaline circulation in the North Atlantic . To predict changes in the future it is vital to understand the behaviour of the sub-glacial bed . 
13511	come in from the cold	literally	Whether one mouse can constitute an í‰äóÖinfestation ' at all of course is a moot point ! Would they also have held you liable if a stray cat had <b>come</b> <b>in</b> <b>from</b> <b>the</b> <b>cold</b> ? I think not . 
14733	come in from the cold	literally	" ) BINOCULARS & GLASSES Whenever someone looks through the binoculars , you see two joined circles instead of one . Glasses never collect moisture when you <b>come</b> <b>in</b> <b>from</b> <b>the</b> <b>cold</b> outside . Computer geeks and " intelligent " persons use them , action heros never have glasses . 
44673	come in from the cold	literally	http://www.steptoesantiques.co.uk/acatalog/Antiques__Collectible_Books_Magazines_Comics.html GET INTO THE KITCHEN . There are few things more pleasurable than <b>coming</b> <b>in</b> <b>from</b> <b>the</b> <b>cold</b> to a house filled with warm cooking smells . Wintertime is just perfect for sumptuous stews and sweet steaming puddings . 
50089	come in from the cold	literally	The Newcastle Offset Family Feature has a 0.1 per cent discount off the base rate for the first six months , rising to base rate plus 0.5 per cent afterwards . Young people <b>come</b> <b>in</b> <b>from</b> <b>the</b> <b>cold</b> Some of the Yorkshire Dales ' prettiest villages could soon be alive with the sound of children playing and laughing . But that prospect hinges on the success of a pilot scheme intended to provide affordable housing . 
52282	come in from the cold	literally	When attached to an eyepiece , the coating will face the eyepiece and therefore be protected from the elements . It is recommended to keep the filter attached to the eyepiece when <b>coming</b> <b>in</b> <b>from</b> <b>the</b> <b>cold</b> night to prevent moisture from forming . Minus Violet Minus Violet Filter is a specialised corrective filter that greatly reduces the annoying false colour fringing of violet rim of light around very bright objects in refractors . 
60005	come in from the cold	literally	Needless to say , faced with choosing between fruit tea in a cardboard box , and fruit tea in a balsawood house ... I chose the house . The tea ( apricot and peach ) is wonderful , and sweetened a little with honey is just the thing when <b>coming</b> <b>in</b> <b>from</b> <b>the</b> <b>cold</b> . They also sell Reese 's pieces ( I know they 're as common as muck over in yankland , but here they 're a rarity ) for 42p . 
71903	come in from the cold	literally	SEE EXHIBITIONS ATTACHED Fancy a unique shopping experience this Christmas ? <b>Come</b> <b>in</b> <b>from</b> <b>the</b> <b>cold</b> and join in the festive atmosphere at LIGHT HOUSE CHRISTMAS CRAFT AND GIFT FAIR . Soak up some festive cheer with a glass of warm mulled wine and stroll around stalls by high quality designer makers and artists selling jewellery , silk scarves , furnishings , fashion accessories , art and winter foods . 
96236	come in from the cold	literally	Though I 'm not sure what that means as my feelings do n't make sense to me . It feels a little like frostbite - or rather when you <b>come</b> <b>in</b> <b>from</b> <b>the</b> <b>cold</b> and the numbness fades into pain . I lost you - I froze , and now as the world moves on it is trying to revive me . 
106163	come in from the cold	literally	It seems so much fresher to me , and sweeter too , as I pass the street vendors in the markets , hot fresh doughnuts here , roasted chestnuts there , mulled wine just ahead . I love the tingling as the blood rushes back to my face and hands when I <b>come</b> <b>in</b> <b>from</b> <b>the</b> <b>cold</b> . I love warming my hands on cartons of food bought from one of the many stalls in Camden Market and finding a spot on a wall somewhere to transfer the warmth inside . 
138184	come in from the cold	literally	On the other hand , the frames of the glasses block your peripheral vision , and when you move your eyes to the side , you are no longer looking through the optical center , causing blurred and distorted vision . Unaffected By Weather í‰äóñ Contact lenses do not fog up when you <b>come</b> <b>in</b> <b>from</b> <b>the</b> <b>cold</b> , and neither do they get splattered by rain . In addition , they do not steam up from body heat or perspiration . 
161459	come in from the cold	literally	Just like the new WEEE man sculpture that was unveiled across the river from ZDNet UK Towers this morning , the Infosecurity Europe security conference had a feeling of the recycled about it this year . Same old companies peddling the same old fears , products and solutions , though we did notice one notable addition this year : the anti-spyware vendors who <b>came</b> <b>in</b> <b>from</b> <b>the</b> <b>cold</b> April showers . Let 's be in no doubt here ; they are sorely needed . 
13054	cook with gas	figuratively	And of course , for the first time , it was possible to enjoy a glass of wine or a cold beer on the Maes . If the Eisteddfod managed to turn things around in a mere nine months , with regular and appropriate funding , then they could really be <b>cooking</b> <b>with</b> <b>gas</b> . Festival organisers have accepted and understood that for the Eisteddfod now , the non-change option is simply not an option . 
25875	cook with gas	figuratively	Let 's also assume that you were smart enough to put a UPC barcode on your CD so every time one is sold , it shows up on Soundscan 's ( they track actual record store sales numbers ) computer . Now you 're <b>cooking</b> <b>with</b> <b>gas</b> ! Now you can sit back and relax , because I 'll bet you dollars to donuts that some beadie-eyed person with really thick glasses is sitting in a dimly lit office at a major record company looking at Soundscan reports . 
28907	cook with gas	figuratively	) . Now you 're <b>cooking</b> <b>with</b> <b>gas</b> . Make a file called ' distfile ' in your home directory on your " main " computer . 
62812	cook with gas	figuratively	My PC has had so many enhancements and add ons it 's starting to resemble Anne Robinson . Today I installed a USB 2 card - now I 'm <b>cooking</b> <b>with</b> <b>gas</b> . Birthdays are weird polarising moments that somehow bring to you the notion that you are very special and worthy of celebration and at the same time how utterly insignificant you are in the lives of almost everyone else on the planet . 
69749	cook with gas	figuratively	. Now we 're <b>cooking</b> <b>with</b> <b>gas</b> ! or IR maybe :- ) And as you say...the video card would be a neat solution . 
87250	cook with gas	figuratively	Lighting changes on cue , keeping hands on control of í‰äóÖkey ' lamps , etc.,etc . Mix to studio , nicely coloured floor , pars flashing to the beat , and then , a lighting change as the presenter enters , cut to audience backlit in colour ; Yessss , now we 're <b>cooking</b> <b>with</b> <b>gas</b> ! I was just so pleased that Iannos had come up with the goods , in spite of so many things conspiring against him . 
112319	cook with gas	figuratively	went away for the weekend and internet not working upon return. kept saying , well reading " resolving host .. such and such " bottom left of lower bar on firefox browser. old Internet explorer would n't connect either . Eventually reset broadband modem and now <b>cooking</b> <b>with</b> <b>gas</b> , but the whole thing sounds a little weird . Worldwide server issue ! 
122778	cook with gas	figuratively	Seasoned number watchers might be reminded of the outbreak of MMC disease in May 2001 . By the ninth , the scare machine was really <b>cooking</b> <b>with</b> <b>gas</b> . Another man 's poisson Scottish salmon is full of cancer toxins screamed The Daily Telegraph and that was one of the milder headlines . 
160633	cook with gas	figuratively	I 'm getting caught up in all the excitement . Have you been looking at The Urbs thread , this is really <b>cooking</b> <b>with</b> <b>gas</b> ... . I 've won more money on this forum in a week and a half than I have in the previous month . 
9456	cook with gas	literally	#55 Ian Lloyd 354 days ago call me #56 Eugenio 354 days ago I hope wherever John is....he 's ' cookin ' with gas ! ' ...(It 's just a saying - does n't mean he HAS to <b>cook</b> <b>with</b> <b>gas</b> of course ! ) Damnit , I was going to ask John all sorts of crappy cooking questions because I 'm shit at it ( bloke that I am ) and trying to learn....(why ? 
10915	cook with gas	literally	( say no more than í‰Œ£ 50 - although of course , it will be down to what you negotiate with the tenants . <b>Cooking</b> <b>with</b> <b>gas</b> I have just let my two bedroom property in South Wales . There is a gas connection for a gas cooker but no electrical point for an electric cooker . 
29094	cook with gas	literally	She used to cook on a bar across the fire , which also supported a kettle . Her Mother <b>cooked</b> <b>with</b> <b>gas</b> , as she did until she went on to electric . It used to take a long time to cook . 
60635	cook with gas	literally	It consists of cast iron griddle and grill and allows a variety of cooking techniques and different foods . Basically this means you <b>cook</b> <b>with</b> <b>gas</b> in a similar way to that of a kitchen gas hob . The advantage of the flame tamer system is that it provides maximum flavour and seals the flavour into the meat with none of the mess of charcoal or lava rocks . 
77436	cook with gas	literally	We want it to serve us , to come to our houses ( domestic access to natural gas ) . I want to <b>cook</b> <b>with</b> <b>gas</b> in place of animal waste , or that my son , my daughter can have a job . This is the second historic element . 
81756	cook with gas	literally	Keep the path to reach them clear of obstacles . If you <b>cook</b> <b>with</b> <b>gas</b> , make sure that your hob top has a flame failure device which cuts off the supply of gas if the flame goes out . - Do n't have electrical flexes trailing across the floor or worktop - both can be hazardous . 
90753	cook with gas	literally	However this way of thinking is slowly being dispelled as converts realise for themselves that the lovely barbecue flavour stems from food juices hitting a hot surface and it does n't matter whether the surface is lava rock or traditional charcoal . Real foodies are also increasingly choosing to <b>cook</b> <b>with</b> <b>gas</b> because of the versatility it offers . Combined with the latest in barbecue technology , such as side burners for sauces , it truly provides countless opportunities to impress . 
130201	cook with gas	literally	You can either use the saucepan lid or some silver foil . Personally I use a tea-towel ( by far the best ) but if you do that you need to make very sure that it goes nowhere near the heat - especially if you 're <b>cooking</b> <b>with</b> <b>gas</b> ! Now the point is this . 
144252	cook with gas	literally	You will probably hear lots of different opinions about rural fuel choices , but we 'd like to give you the facts about Calor Country Living . Cooking On Calor Country Living There is no contest for the controllability of a gas flame , and the ability to <b>cook</b> <b>with</b> <b>gas</b> is one of the most frequently cited reasons for choosing Calor . Calor LPG is the clean and efficient fuel which can be used across a wide range of hob and oven designs . 
4561	deer in the headlight	figuratively	The more virginal your reputation is , the more likely you will be sought at the end of the night , so stay in and keep swinging , something will happen . Stay away from married people ; besides the obvious issue , you really do n't want to end up like a <b>deer</b> <b>in</b> <b>the</b> <b>headlights</b> the next morning . Try to keep to the singles ; they are not only safer , but the next-day consequences are limited in comparison . 
71492	deer in the headlight	figuratively	What a cunt . Did u get the freeze up , <b>deer</b> <b>in</b> <b>the</b> <b>headlights</b> response , or leave as quick as poss departure ? Some bitch i .. . 
102159	deer in the headlight	figuratively	Obsidian is on my payroll though so he does what I say . But we 're actually sick , but I 'm doing that whole humble and modest bullshit so people are like " Awww " then when we unleash the pain they 're left bewildered like a <b>deer</b> <b>in</b> <b>the</b> <b>headlights</b> of a MONSTER_TRUCK So the complete opposite of TSA then ? ( The Spartans Approach ) Hahahahaha yeah I suppose . 
113222	deer in the headlight	figuratively	Martin jumped 5.55m in Qualifying and did not advance to the Final . The guy with the " <b>deer</b> <b>in</b> <b>the</b> <b>headlights</b> " look is Martin 's coach , Lech Nikitin . As expected , Marion Jones ( USA ) romped home in the Women 's 200m Final . 
136425	deer in the headlight	figuratively	Still , he scrubs up nicely , and looks good in his action man dressing up flight suit , if not so good actually making decsions or talking to the people or leading or any of that presidential stuff , which he 's managed to cut from his job description in favour of bass-fishing . South Know Bubba on George Bush : <b>deer</b> <b>in</b> <b>the</b> <b>headlights</b> . Why ca n't Bush answer a question on his biggest mistake ? 
136920	deer in the headlight	figuratively	We thought it would be a breeze . But when we sat down to do it , we were like <b>deer</b> <b>in</b> <b>the</b> <b>headlights</b> . It took a month of toying with ideas.í€Œ¢í‰ä‰åí‰Œ They joined up with Ben Schigel for the second time , recording at Spider Studios . 
151654	deer in the headlight	figuratively	) vendor relations people , contact Fry 's management to arrange a similar event to the Windows 98 launch . Needless to say I was like a <b>deer</b> <b>in</b> <b>the</b> <b>headlights</b> , I told him that , in fact , Linux was a free operating system , and that this was one way we saw to market it ( not to mention the fact that no company could match a MS launch when it comes down to the checkbook ) . He was visibly upset , so I thought it was best to stop talking with him at this point . 
1565	drop a bomb	figuratively	Price - 12 = í‰Œ£ 6.99 Killer EP featuring John Arnold with Paul Randolph , Radio City , and a brand new Plantlife track - essential ! Ubiquity <b>drop</b> <b>a</b> <b>bomb</b> here , taken from the forthcoming HVW8 compilation ( pronounced ' heavyweight ' for the textually challenged ) . Plantlife featuring Dena Deadly are up first , with a great track in what is now becoming their typical style - killer soulful disco with a 2005 edge . 
5661	drop a bomb	figuratively	Regarding the ... Thanks for the helpful answers ! Regarding the skepticism ... Let me <b>drop</b> <b>a</b> <b>bomb</b> . What if the messages we get from the I Ching were wroten ambiguosly on purpose , so they can be a tool for personal ... Forum : Divination Discussion Archives October 15th , 2003 , 07:00 PM Replies : 156 Beginners ' room Views : 1,514 Posted By alvaro hi everyone ! 
10950	drop a bomb	figuratively	What caused most stir was Pickeringí‰äó»s final chapter , which is the one I have been quoting from ; and it is plain from this chapter that , in the end , there is something wrong with Pickeringí‰äó»s reasoning . For in his very last paragraph he <b>drops</b> <b>a</b> <b>bomb</b> . He writes , " On the view advocated in this chapter , there is no obligation upon anyone framing a view of the world to take account of what twentieth-century science has to say . 
55638	drop a bomb	figuratively	After that you can look forward to a solo project from Lyrics Born and a Lateef and the Chief album as well . A Latyrx album will undoubtedly follow and DJ Shadow will also definitely <b>drop</b> <b>a</b> <b>bomb</b> somewhere so watch out . Fly : Ok that 's it .... the album is the BOMB ! 
60108	drop a bomb	figuratively	Wed July 19 PM has gone over to France for two days and is living on board Enterprise . It is to be hoped that no one <b>drops</b> <b>a</b> <b>bomb</b> on him . Mon July 24 PM full of his visit to France & was more inclined to talk than to listen . 
100416	drop a bomb	figuratively	Johnson , you change with Smith . Brown , change with Forbes ... " ( we found that one on the internet ) Coming Out on Christmas Day ( to the tune of ' Hark the herald Angels Sing ) I intend to <b>drop</b> <b>a</b> <b>bomb</b> On my dear old dad and mom . For this year , without a doubt Is the Christmas I come out . 
136913	drop a bomb	figuratively	But I think in the years to come , there will be a resurgence of Oasis records . I mean , I could put a Primal Scream record on at Death Disco and it will be like <b>dropping</b> <b>a</b> <b>bomb</b> . People go mental . 
140784	drop a bomb	figuratively	Readers Review Review by Molly Martin ( 310506 ) Rating ( 8/10 ) Review by Molly Martin The narrative opens on a dusty Tennessee day in 1965 . That is the day when Eddie Russel 's preacher father <b>drops</b> <b>a</b> <b>bomb</b> shell . Eddie and his sister Lakeesha will be part of a small group of black high schoolers to integrate the local all white high school . 
143454	drop a bomb	figuratively	Find all posts by hilary # 59 October 16th , 2003 , 06:52 PM alvaro Junior Member Join Date : Feb 1972 Posts : 20 Thanks for the helpful answers ! Regarding the skepticism ... Let me <b>drop</b> <b>a</b> <b>bomb</b> . What if the messages we get from the I Ching were wroten ambiguosly on purpose , so they can be a tool for personal research ? 
10757	drop a bomb	literally	Using the positions they had in the Soviet government and Cheka , forged credentials were produced for two members of the party to enter the German embassy . After failing to kill Mirbach at point-blank range with their revolvers , they shot him in the back of the head while he attempted to flee , and <b>dropped</b> <b>a</b> <b>bomb</b> in the room he was approaching . Both assassins escaped . 
11871	drop a bomb	literally	Bass came up and gave orders to three of us , who were to make a fire step in a trench running along the cemetery . As we were digging , some bombers passed along and one accidentally <b>dropped</b> <b>a</b> <b>bomb</b> , which exploded . Lieut . 
16111	drop a bomb	literally	It turns out that Fallujah is a place that knows something about cavalier attitudes , distant rage and the cost in innocent lives . On Feb. 13 , 1991 , in the fourth week of the U.S.-led air war against Iraq , a British Tornado warplane <b>dropped</b> <b>a</b> <b>bomb</b> that was intended to take out a key river bridge at Fallujah . The bomb veered 800 yards off target because of a faulty directional device , British officials later said , and landed in a market instead . 
17814	drop a bomb	literally	As you move around , Tingle will occasionally give you hints about dungeon puzzles , and his map of the sea is helpful for finding islands before you 've properly charted a quadrant . Tingle can also heal you , restore your magic , <b>drop</b> <b>a</b> <b>bomb</b> anywhere you put his cursor , and give you the ability to fly for short periods of time . All this extra item- and power-up-based help comes at the cost of a handful of rupees , and it 's never actually required . 
21644	drop a bomb	literally	The Forí€ŒÈt de Bavella extends either side of the pass ( Col de Bavella ) , and has recently been replanted with maritime and Laricio pines following a forest fire in 1960 . There are many sights in the forest , such as the Trou de la Bombe ( bomb hole ) , so called because it looks as if someone has <b>dropped</b> <b>a</b> <b>bomb</b> into the rock , creating a hole 26ft in diameter . Although a walkers paradise , Bavella is worth a visit just for the scenery . 
25845	drop a bomb	literally	The huge white areas underneath the wings ( used to help pilots lining up on the tanker ) added their own final uglification . The Vulcan would have flown for its entire service life without ever <b>dropping</b> <b>a</b> <b>bomb</b> in anger had it not been for the Falklands war in 1982 . The famous Black Buck missions , considering the age of the aircraft & their equipment and the incredible distances covered , were incredible feats . 
38466	drop a bomb	literally	I remember listening to the radio broadcast in 1945 : ' a bomb has been dropped on Hiroshima , equal to 20,000 tonnes of TNT ' . I remember rushing out as a child and telling my next door neighbour : ' They 've <b>dropped</b> <b>a</b> <b>bomb</b> equal to 20,000 tonnes of TNT. ' Well , from then on , of course , life became very worrying . I remember the Cuban Missile Crisis , I was a teacher then . 
44953	drop a bomb	literally	Finally , the shooting and the explosions trailed off , and a grim standoff began that was to last for several hours . Then , at 5.25pm , a helicopter hovering 60 feet over the house <b>dropped</b> <b>a</b> <b>bomb</b> with a 45 second fuse . The bomb started fires burning on the roof . 
48179	drop a bomb	literally	I could n't agree more with Monbiot 's and Pilger 's opposition to the bombing of Afghanistan . A couple of days after the terrorist attacks on American targets , I wrote that I would shed no tears if , having established Osama bin Laden 's guilt , the US were to <b>drop</b> <b>a</b> <b>bomb</b> on his headquarters . I stick by that statement despite my basic pacifism and opposition to militarism . 
49234	drop a bomb	literally	At the moment we all support the military with our taxes , regardless of our beliefs . For conscientious objectors there is no moral difference between <b>dropping</b> <b>a</b> <b>bomb</b> and paying someone else to do it . This principle is accepted in law : someone who pays for a murder to be committed is as guilty as the person who actually commits it . 
55166	drop a bomb	literally	" Still , the " targeting error " problem í‰äó_ the one that chose Al Firdos for destruction í‰äó_ has haunted the Air Force ever since . In Kosovo , a Stealth bomber <b>dropped</b> <b>a</b> <b>bomb</b> on the Chinese Embassy after the CIA and DIA failed to coordinate data on what was in the building . A Red Cross headquarters in Kabul and a wedding party in northern Afghanistan suffered similar fates . 
76200	drop a bomb	literally	There are bombs scattered around ; you 'll have to figure out how to get to some . It 's wise to try your best to lure any enemies into a specific area and <b>drop</b> <b>a</b> <b>bomb</b> so you can get more than one destroyed in the blast . Make sure that you get out of the way within three seconds , though ! 
87597	drop a bomb	literally	Boer commandos were soon on their way to fight for the government .. . An aeroplane <b>dropped</b> <b>a</b> <b>bomb</b> on the Benoni Workers ' Hall , and blew the whole building full of executives and strikers to atoms. [ In ] Johannesburg , the workers ' commandos took possession of the working class suburbs of Fordsburg and Jeppe .. . They also entrenched on the neighbouring low hills overlooking the military camping ground . 
89055	drop a bomb	literally	A.V. Roe set up at Hamble to build their 504 aircraft of which 8,000 were built , an aircraft which became the standard basic trainer for the many years and was in service up until the Second World War . The aircraft also held the height record at 10,000 ft and was the first British aircraft to <b>drop</b> <b>a</b> <b>bomb</b> in anger . A.V. Roe 's intention was to build an enormous factory at Hamble , being so confident of the future he bought land to build a housing estate for his men . 
99551	drop a bomb	literally	' Dubai ' is clearly without doubt the best thing you can do - unless , say , someone were to <b>drop</b> <b>a</b> <b>bomb</b> down your chimney , in which case you would have been far better off repenting.... ;- ) Housing by Mr X #1003065 of 3278 18 Mar 2003 09:28 PM Mr Hussain - To buy is clearly without doubt the best thing you can do . Obviously , you have to weigh up what you are buying and how much the equivalent rent is . 
100895	drop a bomb	literally	Jealous over the economic success of local blacks , whites in Tulsa , Oklahoma , razed ' Black Wall Street ' to the ground , bombarding it by air and killing hundreds , perhaps thousands . Similarly , in 1985 police in Philadelphia <b>dropped</b> <b>a</b> <b>bomb</b> on a house belonging to some local black political activists . Six adults and five children who lived in the house died . 
103566	drop a bomb	literally	1931 Scarborough 's Miniature North Bay Railway is opened , consisting of Miniature trains , bridges , slopes and signals . 1932 Open-air theater opened with ' Merrie England '1940 Lone Bomber <b>dropped</b> <b>a</b> <b>bomb</b> on Potters Bar , killing four people and damaging 500 houses . Most had to be demolished . 
107971	drop a bomb	literally	WHAT YOU CAN EXPECT TO SEE Tornados , Harriers , Jaguars... anything that can <b>drop</b> <b>a</b> <b>bomb</b> or fire a cannon . Hawks and F-15s also occasionally use the range but it is primarily the afore-mentioned RAF trio of ground attack types that you will see here . 
108058	drop a bomb	literally	In1941 I witnessed a German fighter skiming over the sea and heading for Exmouth . I was later advised that this fighter <b>dropped</b> <b>a</b> <b>bomb</b> which skidded over the Town Green and failed to explode . I have been unable to confirm this and wish to refer to it in a book . 
109295	drop a bomb	literally	Or the lighthouse , the Golden Lion and the Vegas chippy . Defining moment in history : Coming under fire in one of the first-ever air raids , in 1915 , when a Zeppelin <b>dropped</b> <b>a</b> <b>bomb</b> on farmland near Victoria Avenue . Being dropped from the Radio One Roadshow 's summer itinerary probably came close second as far as bombshells go . 
112938	drop a bomb	literally	Ken í‰Œæat 08 Aug 2006 10:30 A Lost Press I too agree with Richard North . Clearly , Israelis <b>dropped</b> <b>a</b> <b>bomb</b> , and clearly the children in the picture have passed away . I do n't agree with Richard when he mentions the bodies should be covered up - this may be a cultural thing , something of which I have no knowledge whatsoever . 
126009	drop a bomb	literally	When they disappeared behind the houses , I heard a loud bang and saw a cloud of smoke rising into the sky . I thought the Spitfire had shot him down , but I later learned that the German had <b>dropped</b> <b>a</b> <b>bomb</b> on the paint shop at Standard Motor Factory . Family Sundays were very boring , usually my Mum and Dad read the papers , listened to the radio and went to sleep . 
128255	drop a bomb	literally	In one scene Winston visits the cinema where war documentaries are showing . There is one shot of a helicopter <b>dropping</b> <b>a</b> <b>bomb</b> into a boatload of refugees . This occasions applause from the party seats , but in the prole seats a woman is complaining that such a scene is unsuitable for children , ' they did n't oughta ' ave shown it , not in front of the kids ' . 
133242	drop a bomb	literally	For a while , the discovery of the horn of a North American sheep seemed to promise exciting proof of connections between Jarlshof and the New World . In 1941 , a German aircraft had <b>dropped</b> <b>a</b> <b>bomb</b> to the north of the Viking houses , and the horn was found in the sand thrown out of the crater . Alas , excavation ten years later uncovered the remains of a Victorian fisherman 's bothy , making it more likely that this large horn was a souvenir of a 19th century fishing trip . 
135496	drop a bomb	literally	It lasted for hours , little fireflies that were watching Beirut , waiting for dawn perhaps , because it was then that they descended . They came first to the little village of Dweir near Nabatiya in southern Lebanon where an Israeli plane <b>dropped</b> <b>a</b> <b>bomb</b> on to the home of a Shia Muslim cleric . He was killed . 
144223	drop a bomb	literally	His longest journey was to Egypt and it was very dusty . This was an event he told me : When he was at school Hitler sent the V2 over and they <b>dropped</b> <b>a</b> <b>bomb</b> in the playground . This was a special day he told me : When it was war , England beat Germany and Roy had V.E. Day which means ' Victory in Europe. ' His special object is a ' Jardinií€ŒÂre ' , which is an ornamental pot for growing plants . 
145708	drop a bomb	literally	This account of an incident at Harton near South Shields is taken from Mr E.B. Dobson 's book ' Hartonclean 1884 - 1984 ' . " On September 30 , 1941 , a German plane <b>dropped</b> <b>a</b> <b>bomb</b> on the Harton works , ( of what was , at that time , called Bird 's Laundry ) . Heavy damage was done to the main floor and to adjoining buildings , the only section left intact being the dry-cleaning room . 
152164	drop a bomb	literally	It is also unethical to control another nation and to lead it to lose its humaneness . It is patently unethical to <b>drop</b> <b>a</b> <b>bomb</b> that kills innocent Palestinians . It is blatantly unethical to wreak vengeance upon innocent bystanders . 
154658	drop a bomb	literally	Posted on 24.08.06 at 22:04 mick hill Nice one Lee ta . Posted on 24.08.06 at 22:04 scizzers ( the end of the worm is nigh ) Sortin g out the Immigration problem is much easier ( round them all up & <b>drop</b> <b>a</b> <b>bomb</b> on them).i think that comment says it all daz jump on the sword now Posted on 24.08.06 at 22:11 Darren - Moderator ( [ Moderator ] Back in the Bivvy ! ) I was talking about the illegal problem , nothing else . 
5590	first port of call	figuratively	Help ! If you get stuck , this page should be your <b>first</b> <b>port</b> <b>of</b> <b>call</b> . Contact Us If you have an opinion , idea , or just something to say , fill the form out on this page to get in contact . 
8447	first port of call	figuratively	The question arises of who should provide the training as it can be argued that it is the university 's responsibility to provide the learning experience for the students . I put forward the argument that the Chartered Society of Physiotherapy ( CSP ) should be the <b>first</b> <b>port</b> <b>of</b> <b>call</b> for everyone involved , the clinicians , universities and the students themselves . At present the CSP does not have any publications on how to communicate with deaf people . 
9692	first port of call	figuratively	For Enquiries/Sales tel : 649 521 1518 or email : jangow@beehivebooks.co.nz International : Beehive Books can take orders from anywhere in the world . Beehive Books can be <b>first</b> <b>port</b> <b>of</b> <b>call</b> for support purposes and if unable to help then will follow the problem through Address : Beehive Books P O Box 25025 St Heliers Auckland 1130 New Zealand If you are a supplier of genealogy software , and would be interested in selling Family Historian , please contact us at 
10949	first port of call	figuratively	You can also contact us via the website about advertising with us , newspaper delivery or send us a story for the newspaper . Local Services Biggleswadetoday should be your <b>first</b> <b>port</b> <b>of</b> <b>call</b> if you are seraching for local services or information . As well as local and emergency numbers , you will find bus and train timetables , up-to-date share prices , lotto results and much more . 
12361	first port of call	figuratively	Step one : Try to find a " work trial " in a computer based job for full time hours ( 40-ish ) Im of the opinion I can turn my hand to any computer job if I 'm given the opportunity to try . <b>First</b> <b>port</b> <b>of</b> <b>call</b> was the dole , and this unfortunately is what my..rant is all about . It would seem a simple request to ask about work trial related jobs with them wouldnt it ? 
12667	first port of call	figuratively	We provide front-line services to the people of the District , ranging from refuse collection to planning applications , environmental health to benefits . The Customer Contact team is the <b>first</b> <b>port</b> <b>of</b> <b>call</b> for inquiries and can deal with a range of issues or refer customers to the Council 's technical experts for more details . Customer Contact We provide a front-line information service for all of our customers and , where possible , try to resolve any queries you have . 
19875	first port of call	figuratively	Improvisation , its nature and practice in music . The British Library , 0 7123 0506 8. What should really be the <b>first</b> <b>port</b> <b>of</b> <b>call</b> for anyone interested in the topic , whether new to the subject or having some playing or listening experience . Deals with issues wider than within Europe . 
19896	first port of call	figuratively	She is responsible for updating the IPH staff database , issuing University identity cards and photographing staff members for these . She is usually the <b>first</b> <b>port</b> <b>of</b> <b>call</b> if visitors or members of the Institute need information , using internet resources and directories . Christine also designs most IPH Administrative documents including parking permits , posters and the visitor 's safety leaflets . 
25097	first port of call	figuratively	This is a brief introduction to the facilities offered by UWA for video conferencing . The Information Services pages at http://www.inf.aber.ac.uk/vidconf / are comprehensive guide to the services offered at UWA and should be your <b>first</b> <b>port</b> <b>of</b> <b>call</b> for bookings , information and training . The Welsh Video-conferencing Network runs 80 VC suites for FE and HE institutions in Wales . 
35268	first port of call	figuratively	Its settlement rate remains one of the highest , at 85 per cent , with mediations lasting an average of 1.1 days and average cost savings of over í‰Œ£ 85,000 per party per case . Offering comment , analysis and specialist articles , from unparalleled commercial mediation experience , the Centre for Dispute Resolution is the <b>first</b> <b>port</b> <b>of</b> <b>call</b> for the legal and business press . For further information please contact : Dan Wood CEDR Telephone : 0171 600 0500 
37517	first port of call	figuratively	She is also involved in supporting Amnesty 's growing army of youth and student activists . Sarah is the <b>first</b> <b>port</b> <b>of</b> <b>call</b> for journalists calling about Amnesty 's LGBT ( Lesbian , Gay , Bisexual , Transgender ) network which monitors the human rights situation of lesbian , gay , bisexual and transgender people around the world . Sarah also works on Amnesty 's Business and Human Rights programme . 
42790	first port of call	figuratively	TORRO has also helped several University students that have chosen tornadoes for their exam studies . TORRO still remains the <b>first</b> <b>port</b> <b>of</b> <b>call</b> for up to date severe weather information . TORRO PUBLICATIONS Well done TORRO director Robert Doe with The Journal of Meteorology journalofmeteorology.com The journal has had many improvements made lately and we all wish it success in the future . 
46482	first port of call	figuratively	WHY ? As it happened , Steve 's parents lived literally at the bottom of the road and , needless to say , that was my <b>first</b> <b>port</b> <b>of</b> <b>call</b> . I should add here , that these were good and decent people who always had time for Steve 's friends , me included , but the reception I got shocked me . 
47166	first port of call	figuratively	Your <b>first</b> <b>port</b> <b>of</b> <b>call</b> should be the Porters ' Lodge ( p'lodge ) . Go to the desk and sign in with a porter , who will give you your room key . 
47677	first port of call	figuratively	Each resident has their own key-worker who will work with them to identify goals and development needs and support them in achieving their full potential in a step-by-step , manageable way . Emmaus House is the <b>first</b> <b>port</b> <b>of</b> <b>call</b> for any young person wishing to be accommodated with Emmaus Projects . Emmaus House is a friendly environment where residents can enjoy a secure and stable living environment with extensive support from the staff team . 
48189	first port of call	figuratively	. It should be a <b>first</b> <b>port</b> <b>of</b> <b>call</b> for those interested in devolution in the UK . " John Hopkins , European Public Law " An indispensable reference book on devolution in the UK , but also an attempt at an evaluation of the first five years . 
50821	first port of call	figuratively	Producers look to Guild Directory I have left out a lot , the major events for members in Cannes and Edinburgh , our own direct magazine which you are holding and above all the Directory of Directors . The Directory is the <b>first</b> <b>port</b> <b>of</b> <b>call</b> for producers searching for directors for their favourite projects . I personally fielded a call recently where an employer wanted the details of 6 directors they had found in the Directory . 
52171	first port of call	figuratively	But most of the time you actually have to have bought the chocolate to be able to use your senses , by which time it 's too late . That 's why the <b>first</b> <b>port</b> <b>of</b> <b>call</b> should always be the ingredients . Read the label , it can be very revealing indeedí‰äó_ The first thing to understand is that ingredients are listed in descending order of their precooked weight . 
53593	first port of call	figuratively	Universities and others will sometimes cater for such people by providing courses that can be studied at home , by correspondence . Many people turn to the Open University as their <b>first</b> <b>port</b> <b>of</b> <b>call</b> in finding such courses . Unfortunately , the Open University does not offer archaeology and only has a few archaeology programmes within other courses . 
57024	first port of call	figuratively	Excellent ! Government Tourist Sites Czech.cz www.czech.cz Your <b>first</b> <b>port</b> <b>of</b> <b>call</b> for all things Czech , with a huge selection of travel , business and leisure information . Slick , colourful and detailed , this is a great site for anyone wanting to find out about Prague and the Czech Republic in general . 
57287	first port of call	figuratively	As well as research , AEM provides consultancy and web-development support and disseminates its research findings across the OU . The group operates in partnership with the Centre for Assistive Technologies and Enabling Research ( CATER ) , which is the <b>first</b> <b>port</b> <b>of</b> <b>call</b> for course teams tackling the access issues of their online course components . AEM staff Martyn Cooper ( Senior Research Fellow , Head of AEM ) : Martyn 's home page . 
59052	first port of call	figuratively	I see that you 're only 17 , so I imagine there 's no possibility of private therapy unless your parents will fund it . So obviously your <b>first</b> <b>port</b> <b>of</b> <b>call</b> must be your GP . Now , I have no idea whether you have a good relationship with him or her , but if by any chance your GP is not someone you feel you can confide in , the first thing you must do is to find someone you CAN talk to . 
60139	first port of call	figuratively	" The new improved service will enable users to find quality resources with even greater ease , " says Caroline Williams , Executive Director of the RDN . " Everyone realises the limitations of search engines , but their simplicity often makes them the <b>first</b> <b>port</b> <b>of</b> <b>call</b> . Our aim is to change that -- to raise the standards of the resources that are accessed by cataloguing the best of the web , and then making these records as easy to use as possible . 
62842	first port of call	figuratively	That 's the way I wanted it to be for the viewer . I wanted it to be not about the nuts and bolts of it , and the joke of í‰äóÖhave you tried switching it off and on again ' became very useful because I guess that would be the <b>first</b> <b>port</b> <b>of</b> <b>call</b> for most I.T. guys and usually the thing that solves all these problems . It 's going to be hard for I.T. people to say that now without feeling a bit self conscious if the show 's a success . 
63156	first port of call	figuratively	If you require advice or support , IT User Services can assist you in a number of ways . Your <b>first</b> <b>port</b> <b>of</b> <b>call</b> should be this Web site , which contains information relating to our services and facilities . A wide range of support and training materials is also available . 
63534	first port of call	figuratively	We provide advice on preparing your CV and on interview techniques to help you get the job you want . Our name and reputation is now so good that accountancy staff of all levels now turn to RK Accountancy as the <b>first</b> <b>port</b> <b>of</b> <b>call</b> when looking for another job . See what some of our candidates say about us . 
64828	first port of call	figuratively	We successfully disembarked and , with buggies up and running converged on a slightly worried looking proprietor , who for all the world looked like he was about to be trampled . Entry to the farm itself went smoothly and so on to our <b>first</b> <b>port</b> <b>of</b> <b>call</b> , the tea shop , seen as an essential stop of course , to regroup , refresh , and formulate a plan of action . The children had other ideas though and , after gulping down half a cup of tea , organised chaos ensued . 
66892	first port of call	figuratively	If you have a work-related problem your <b>first</b> <b>port</b> <b>of</b> <b>call</b> will be the director of the institute where you are placed . Any other problems ( or work issues if not satisfactorily resolved ) will be dealt with by Joel Barlow , the Changing Worlds representative . 
69779	first port of call	figuratively	Counsel , but not experts , may act on conditional fee agreements These changes were matched by the effective abolition of legal aid for personal injury cases and severe limits on other types of claims . For the vast majority of individuals the conditional fee now represents their <b>first</b> <b>port</b> <b>of</b> <b>call</b> when instructing a lawyer . Top | Contents | Bibliography Can and Should the Indemnity Principle Survive ? 
76855	first port of call	figuratively	Repainting of the MLVs is an on-going process . End of the Line : If one is looking for the locations of withdrawn and stored locomotives , this is the <b>first</b> <b>port</b> <b>of</b> <b>call</b> . All former British Rail diesel and electric locomotive classes are catered for , as are those of post-privatisation . 
76987	first port of call	figuratively	Being a monkey , and all . Links The Internet Movie Database is , as ever , your <b>first</b> <b>port</b> <b>of</b> <b>call</b> for data on any film you care to name , and The Phantom Menace is no exception . Amazon.com are also getting in on the act with their own Star Wars store selling the books , soundtrack albums and so on . 
77531	first port of call	figuratively	What I do n't have is any experience or breadth of knowledge with poultry keeping . I look after Katie Thear 's site Broad Leys Publishing and she has written a number of great books on keeping poultry , so that 's my <b>first</b> <b>port</b> <b>of</b> <b>call</b> . On the site there is a link for agricultural colleges and I noticed Reaseheath ( local to me ) is doing a one day course ' Introduction to Poultry keeping ' on Saturday 22nd October so I 'll try and get on that . 
77969	first port of call	figuratively	Now , potential buyers will be able to see the product , in the shape of the oldest building on the scheme , The Town House , a rare survivor of 1809 , originally built as the caretaker 's house to Severn Street School . This is to be open five days a week , from Thursdays to Mondays , a <b>first</b> <b>port</b> <b>of</b> <b>call</b> for all buyers . The property is unique in the development , and the city , a restored and modernised three storey Georgian house , complete with cellar and roof terrace . 
78187	first port of call	figuratively	A late evening slow drive along the same road produced no less than 7 River warbler , 2 Snipe and a Corncrake which , against all odds , was seen ! Day 5. The <b>first</b> <b>port</b> <b>of</b> <b>call</b> this morning was the small park at the eastern end of Bialowieza village in the hope of Greenish Warbler . No joy . 
86884	first port of call	figuratively	Olivia Gann í‰äóñ Administrator Olivia is the most recent member to team in the Safety department . Her main duty is as co-ordinator of safety training days for trainers and examiners and to be their <b>first</b> <b>port</b> <b>of</b> <b>call</b> for questions relating to their training of riding and road safety test candidates . Olivia makes sure that their records are kept up to date , as well as assisting other members of the team as required . 
86943	first port of call	figuratively	We wish to see all organisations and individuals with good track records in arts education listed on artscape . Our aim is to make artscape the <b>first</b> <b>port</b> <b>of</b> <b>call</b> for schools and other educational institutions looking to employ accomplished and experienced artists in any art-form . Registration is entirely free of charge . 
87992	first port of call	figuratively	Where to find Habitat information and data Back to biodiversity information and data page The below table gives the <b>first</b> <b>port</b> <b>of</b> <b>call</b> for finding information on the habitats of the Solent . If there are any additional sources of information which should be added please contact the Solent Forum Office . 
89308	first port of call	figuratively	They also have gifts for boys and girls with some lovely personalised items . John Lewis John Lewis is the <b>first</b> <b>port</b> <b>of</b> <b>call</b> for many when it comes to items for the home . They are renowned for their quality . 
91620	first port of call	figuratively	Justg 's Loonie Laguna Justg , The colour is dark gold/light brown , but it does n't smell burnt . Unfortunately there is no record in the chequered service history to say that the fluid has been changed.....sounds like the <b>first</b> <b>port</b> <b>of</b> <b>call</b> ? Do you reckon that Wynns Automatic Treatment might be beneficial too ? 
93989	first port of call	figuratively	Heather and Tom maintain links with Arts Development Officers and other arts and music organisations , and regularly attend and speak at external events with a view to benefiting and increasing opportunities for Making Music members . In short they act as a <b>first</b> <b>port</b> <b>of</b> <b>call</b> and contact point in London . 
96333	first port of call	figuratively	Their Braintree showroom features over 2,400sq.ft. of display space with 11 exclusive room settings . If you live in East Anglia , and Essex , Suffolk or Hertfordshire in particular , and are looking for ceramic tiles for your kitchen , bathroom , living area or patio , the Tile Centre should be your <b>first</b> <b>port</b> <b>of</b> <b>call</b> . The company prides itself on the very highest standards of service and can provide expert advice about all matters related to the use of ceramic tiles . 
99034	first port of call	figuratively	I took a quick tour around the internet one night and this is what I found as well as some comments on the web sites . The <b>first</b> <b>port</b> <b>of</b> <b>call</b> was omlet , home of the famous eglu hen house . This is the most innovative product on the market for keeping chickens at home . 
100450	first port of call	figuratively	Links to relevant website have been added by various users and students have created their own pages , e.g. [ http://wikitextbook.co.uk/index.php/Motivation students ' notes on motivation ] . This has undoutably been a success and the site is the <b>first</b> <b>port</b> <b>of</b> <b>call</b> for the students when they have a question . There are many areas of the site that are still empty - waiting for content to be added ! 
101691	first port of call	figuratively	is the website of the Community Legal Service . We 're your <b>first</b> <b>port</b> <b>of</b> <b>call</b> for legal help and information in England and Wales . Community Services Directory This information system has been developed to provide instant access to organizations which can provide help , advice and guidance on a whole range of issues which affect you . 
102229	first port of call	figuratively	The patient is normally then told by a doctor what has been written about them , or sent a copy of the consultant 's letter . " It 's the patients ' health , so it makes sense to look at how they could be the <b>first</b> <b>port</b> <b>of</b> <b>call</b> for any information about their health . It is worth thinking about whether consultants should write direct to patients , rather than writing to their GP and sending patients a copy . 
104218	first port of call	figuratively	If any big name bands come to Bristol , then you can be sure that their <b>first</b> <b>port</b> <b>of</b> <b>call</b> will be Colston Hall . That is unless they 're being incredibly politically correct and refuse to play in a hall named after a chap who made his cash from the slave trade . 
112220	first port of call	figuratively	Although usage usually begins at the age of six and then carries on until the age of 19 , Vol : 14 Iss : 9 Section : Special report Word Count : 3,116 Read full article ! Information : Ever since Louise Brown , the first ever test-tube baby , came into the world in 1978 , in-vitro fertilisation ( IVF ) has become the <b>first</b> <b>port</b> <b>of</b> <b>call</b> for people having trouble conceiving . Since Louise 's birth , Vol : 14 Iss : 9 Section : Q&A Word Count : 298 Read full article ! 
118128	first port of call	figuratively	Where can I find information about taking my pet abroad ? The <b>first</b> <b>port</b> <b>of</b> <b>call</b> , if you are travelling from the UK , is to research the Pets Travel Scheme ( or PETS for short ) , which allows you to travel throughout Europe with your pet and not have to place your pet in quarantine . You can pick up a leaflet on the PETS scheme from your local vet or post office or visit DEFRA - the Department for Environment , Food and Rural Affairs . 
120659	first port of call	figuratively	But criticisms aside , for the complete beginner to the subject of Orcadian history , Sinclair 's volume might make an adequate enough introduction but the confusing writing style might deter . But were I asked , I would have to put hand to heart and recommend the interested party 's <b>first</b> <b>port</b> <b>of</b> <b>call</b> should be William Thomson 's work - just to see how it should be done . 
124951	first port of call	figuratively	Fully automatic mode copes with many conditions admirably , but most users will want to flick into spot metering - as opposed to 256 point matrix mode - rather frequently . That will probably be your <b>first</b> <b>port</b> <b>of</b> <b>call</b> in the menus for preset number one . Image S harpening Another reason for frequently using one of the preset modes is that in the default auto-everything mode , image sharpening cannot be moved from í‰äóÖauto ' . 
130182	first port of call	figuratively	The Student Union is the <b>first</b> <b>port</b> <b>of</b> <b>call</b> for most new students when looking for a cheap night out . The beer comes at a good price , you 're surrounded by other students , and there are usually themed nights throughout the week catering to a range of different tastes . 
135690	first port of call	figuratively	ig or small , if you busines is going to advertise , then in our view you must have your own web site . We know that when we are searching for services the <b>first</b> <b>port</b> <b>of</b> <b>call</b> is a " Google " search . If we are looking in a directory such as Yellow Pages or an advert in the local press , the people we look at first are those with a web site . 
136375	first port of call	figuratively	The Scottish Community Household Renewables Initiative offers grants for renewable energy projects . The Energy Savings Trust also offers grants elsewhere in the UK and is a good <b>first</b> <b>port</b> <b>of</b> <b>call</b> for information on the different technologies available . The Scottish Energy Efficiency Office provides local assistance to business in Scotland - offering information and free site visits . 
139060	first port of call	figuratively	Just like the scorpion in the fable , he caní€Œ¢í‰ä‰åí‰ä‹¢t help it . He likes , for example , to see the SRA featured prominently in the Financial Times , so that is his <b>first</b> <b>port</b> <b>of</b> <b>call</b> whenever he wants to see his bossí€Œ¢í‰ä‰åí‰ä‹¢s views in the press . When I was on The Independent , I had a naí€Œ¿ve belief that public bodies should not do this . 
141161	first port of call	figuratively	So much so that recent research found that 67 % of those working in public sector procurement already use our products and services . Providing both the public and private sectors with solutions for e-tendering , contract information and a range of other comprehensive procurement-related products and services , BiP is the <b>first</b> <b>port</b> <b>of</b> <b>call</b> for many hundreds of professionals involved in procurement and tendering throughout the UK and Ireland . 
141980	first port of call	figuratively	No Use Useful Very Useful I have not visited I have visited but have no opinion 14 . Overall , the NDT website has been designed to provide the <b>first</b> <b>port</b> <b>of</b> <b>call</b> and a central repository for those in the HE sector looking for information , support and materials in relation to disability issues . Do you think the current site fulfils this aim ? 
143876	first port of call	figuratively	Are there any practical barriers that need to be overcome ? We agree with the FSA 's synopsis of the ways in which CWI can be identified and do consider that firms and trades can be more pro-active given that they usually act as the <b>first</b> <b>port</b> <b>of</b> <b>call</b> . We also agree that nominated individuals within the FSA would assist in communication flows between FSA and industry and other stakeholder bodies , and form a gateway . 
150463	first port of call	figuratively	We hold a broad range of equipment in stock but if we do not have what you require we can order it for you . Whatever your sailing requirements the Cambridge Dive and Watersports Centre should be your <b>first</b> <b>port</b> <b>of</b> <b>call</b> . If you would like to order over the internet then please also take a look at our online store , which has just some of the items we hold in stock . 
157419	first port of call	figuratively	We have over 100 , covering a whole spectrum of life issues . If you want a laugh , a cry , some advice or just a good old gossip , then make the iVillage community your <b>first</b> <b>port</b> <b>of</b> <b>call</b> . . 
162333	first port of call	figuratively	All day long UKAEA white-coated technicians escorted parties of visitors around the site . The <b>first</b> <b>port</b> <b>of</b> <b>call</b> was the chemical group , a complex of laboratories , fuel element fabrication plants , spent fuel reprocessing facilities and stores for highly radioactive waste . On either side of a 440 foot long corridor were suites of laboratories , specially designed for analysing all kinds of radioactive substances . 
167216	first port of call	figuratively	This is one of the best places on the int0rweb to gain inspiration and see cutting-edge web design showcased . The lovely Tim Jarvis ' work has been featured on there previously , both for the work he 's done for Magnasoma and for Moeker , and I consider it my <b>first</b> <b>port</b> <b>of</b> <b>call</b> when I need some ideas . Check it out . 
8672	first port of call	literally	There are many areas within the University that offer support and advice to our overseas graduate students , and the details and web addresses of most of them feature within these pages . Your <b>first</b> <b>port</b> <b>of</b> <b>call</b> should be the International office , which looks after the wellbeing of our international students . Consult their website at http://www.international.bham.ac.uk / to see what services they provide . 
20216	first port of call	literally	A popular figure locally , more than 40 letters have been sent in support of his application for asylum . At the moment the Home Office have turned down the application and the family faces being sent back to Belgium which was their <b>first</b> <b>port</b> <b>of</b> <b>call</b> in Europe . 
29589	first port of call	literally	The American Admiral in charge of all operations in the Far East was I think , named Fife and he had a great love for submariners . So we set off , our <b>first</b> <b>port</b> <b>of</b> <b>call</b> was Gibraltar , then through the Med onto Malta , Suez , Port Said and after sailing through the canal we eventually ended up in Trincomalee . From this point on we had to be on our guard as the Japanese still had many surface ships operating in these waters . 
102553	first port of call	literally	Passengers retired for the evening excited at the prospect of the Bosphorus tomorrow , and hoping that the weather remains as beautiful as it has been today . Captain Alistair McLundie , MV Spirit of Adventure Kusadasi , Turkey Friday 5 May 2006 Wonders of the Ancient World - Day 3 Our <b>first</b> <b>port</b> <b>of</b> <b>call</b> today , and a true delight it was . Kusadasi is arguably the most visited cruise port in Turkey . 
138640	first port of call	literally	The 3rd and 4th was reported near to Primrose Valley Holiday Cottages at Filey , between Reighton and Filey some 5 mile stretch of beach . <b>First</b> <b>port</b> <b>of</b> <b>call</b> was HELP ! Sue White from the office thanks for your valued help , as always . 
11639	go south	figuratively	Retail punters seem to agree , taking the price depression as an opportunity to bag a bargain . Northern <b>goes</b> <b>south</b> Meanwhile Jamie Oliver adds Northern Foods ' scalp to his trophy cabinet . The firm issued a profits warning as sales dipped in an increasingly health-conscious market and the shares fell by around 20 per cent over the week . 
27408	go south	figuratively	What do we say to that ? We say that , again , Scotland is losing out and the bulk of investment is <b>going</b> <b>south</b> . Website Design í‰Œ© 2006 Fairly Unique Media . 
43037	go south	figuratively	Wilson , 37 , is a notorious for his womanising ways and has previously dated actress Demi Moore and singer Sheryl Crow . Speaking about his inability to commit to women , following his split from Crow , he said : " I was lucky enough to find a great girl , and because of my lack of focus , the relationship <b>went</b> <b>south</b> . " ( c ) BANG Media International . 
103944	go south	figuratively	Some theatres getting 400 and 500 % increases in current funds . That Boyden money adds to the talent drain whereby Scottish talent <b>goes</b> <b>south</b> . So thatí‰äó»s the situation : Boyden in England , infrastructure run down because of standstill funding and disappearance of the regions , and at this moment we have the opportunity to create a new theatre which will excite people all over Europe . 
636	go south	literally	How was your day ? " The second friend says , " I <b>went</b> <b>south</b> and ran across a set of railway lines . I followed them until I came across a beautiful young woman tied to the tracks . 
821	go south	literally	Last season I was away for only 6 weeks but this coming season I may be away for 4 months . Some people <b>go</b> <b>south</b> for 2.5 years which is a very long time , they even spend the winter down there . What are you studying in Antarctica ? 
2271	go south	literally	While the route north to Leicester and south to Bugbrooke on the Grand Union is closed . We had hoped to <b>go</b> <b>south</b> to make it easier for visitors but it would be March before we could start . We have been advised to go north early in order to miss the crowds on the Llangollen Canal. [ UP ] [ DOWN ] CHRISTMAS ON BOARD Either side of Christmas saw our boat in ice again . 
3122	go south	literally	Cross the river and turn left along a lane . The Rhymney Valley Ridgeway <b>goes</b> <b>south</b> from here to Draethen and Ruperra . Ruperra Castle and the woods are worth a visit , but you can cut the angle off . 
5728	go south	literally	St.Ronan 's had 64 girls living there in 1930 , of whom twenty were maternity cases , the maternity work being concentrated at Dundee . The matron since 1925 was Miss Ethel Smith-Shand , but she <b>went</b> <b>south</b> to become superior of the Order of the Divine Compassion . By 1942 St.Ronan 's was being run by Miss Catherine Luce and Dr. Janet Murray , both veterans of missionary service in Africa . 
13185	go south	literally	Just at the fork is an obvious bus shelter on the left with a shop just before this . 30 metres before the shop two roads <b>go</b> <b>south</b> ( left ) . Take the leftmost road for about 500m , it crosses a stream and 100m later there is a good road to the right which goes right out to the shoreline . 
14745	go south	literally	Route : The race starts beside the monument ( Stone Chair on the map ) 200m east of the car park . The route <b>goes</b> <b>south</b> east to Ivy Bridge , crosses a steep ditch and climbs steeply up Curraghard gaining 200 metres in climb . Exit the forest in a south west direction & follow the path beside the forest boundary until you swing SW to the checkpoint on top of the hill at 339308 . 
17969	go south	literally	We toured the town , and Robin guided everyone around the beautiful Cathedral of St. Magnus , as well as the ruined Bishops ' and Earls ' Palaces . Then we <b>went</b> <b>south</b> , crossed the first couple of Churchill Barriers , and had lunch in the sun , by the sand and sea : soporific it was , but.....(oh , all right , I know you can have too much alliteration , and anyway , a Painted Lady , what else , woke us all up ! ) . 
18797	go south	literally	Some of these were eventually taken over and became the present Lloyds Bank . Herds from Scotland also <b>went</b> <b>south</b> down the centre of England , some having swum across the Solway Firth . Wherever possible drovers tried to avoid Toll Gates , where a toll had to be paid on each animal , and the time taken to count them through the gates tended to make the cattle restive . 
23254	go south	literally	The Devil 's Ashpit- do n't get too close ! The tour <b>going</b> <b>south</b> took me past the USAF base at Cats Hill where there is a place called the í‰äóÖVolcano Bar ' ( I must try that later ) followed by a quick trip round the south side of Green mountain to a place called Devils Ashpit . This is an extremely deep gully made of what can only be called black ash . 
24323	go south	literally	Go east to the Project Corridor . Then <b>go</b> <b>south</b> to the Projcon Office . Go east to the Computer Room . 
24326	go south	literally	Run back to the Projcon office . <b>Go</b> <b>south</b> into the Cryo-elevator . Push the Button . 
31044	go south	literally	This is close to the end , so I must take care not to reveal too much ! However , once you have come to the silent road you should <b>go</b> <b>south</b> twice , and then west to the headless statue . Now go west to the Bar . 
33122	go south	literally	Years later I found a letter in a Newspaper which was from a Mr Howell - ( Possibly CPO Howell ) - I think the letter was wrongly headed í‰äóÖAn Ajax Veteran remembers ' . The facts , appear to fit the í‰äóÖExeter ' not í‰äóÖAjax ' ( Exeter <b>went</b> <b>south</b> to the Falklands and returned to Plymouth ) . Many books have been written about the battle , but this letter shows the views of one who took part . 
41520	go south	literally	The ease of access to the dives is superior out of San Pedro . Belize City is not a great place to stay either. need to <b>go</b> <b>south</b> to the Cayes for the good stuff . The Blue Hole is worth 1 chilly .. . 
43056	go south	literally	I prefer to hark back to the London I first knew when living the other side of The Severn . Thinking , the first time I came here , that if I <b>went</b> <b>south</b> of the river , maybe I 'd see Marlene pushing her buggy , Mickey Pierce in his pork-pie hat and Trigger with his broom . When you 're young , Del Boy and Rodney are real as apples and pears , and they live in a mystical land that is forever Peckham. [ Where Do Only Fools And Horses Work ? 
46519	go south	literally	W Kip South view 1024 x 768 121K Looking across Auchencorth Moss to the Moorfoot Hills . WK Mountain Bikers 1152 x 864 305K Six mountain bikers are traveling north while another two are <b>going</b> <b>south</b> . This path leads from the end of the main Pentland ridge down to Lover 's Loup . 
49804	go south	literally	On the map I have indicated there is a door that leads south to the armoury and initially this door will be closed . Also , I intend that the armoury will be a dark location , where you will need a light source to be able to see , and therefore <b>going</b> <b>south</b> from location 1 and north from location 2 will be dependant on two of the FLAGS which PAW uses . So , the connections entry for loc 1 will be : { E 3 W 6 U 5 } . 
53768	go south	literally	Two teachers have been missing for two nights on the Merrick . I never <b>go</b> <b>south</b> as a matter of principle , so have no first-hand knowledge of the summit - if one can call it that - in question . So correct me if I 'm wrong , but is n't it a wee Sunday afternoon stroll in Albionesque country ? 
55919	go south	literally	I 'm going to read through the passage section by section , and I 'll keep pausing to explain what it means and why it 's relevant to us . So this is how it begins : Now an angel of the Lord said to Philip , " <b>Go</b> <b>south</b> to the road - the desert road - that goes down from Jerusalem to Gaza . " This first thing to say is that Philip was a disciple - a follower - of Jesus Christ . 
56932	go south	literally	He 'll give a Verse and Line number referring to the poem that came with the documentation . Stop waiting and <b>go</b> <b>south</b> four times . This is a good place to save your game . 
56940	go south	literally	GET BRACELET , then WEAR BRACELET . ARTHUR : THE QUEST FOR EXCALIBUR Part 3 It 's time to resume our journey , so CYR EEL again , <b>go</b> <b>south</b> , southeast , and northeast , and you 'll see a slow minnow . Do n't bother to try to catch it now , but remember it for later . 
56943	go south	literally	We 're off on another adventure . <b>Go</b> <b>south</b> , southeast , and northeast twice to a tall tree . You ca n't climb the tree , but it looks interesting , so CYR OWL , then go up . 
56945	go south	literally	Just go up , north twice , west , and south twice to the shallows . CYR EEL , then <b>go</b> <b>south</b> , southeast , and northeast to the minnow . EAT MINNOW . 
56963	go south	literally	It was now very windy & rainy , so over an unspectacular pub lunch we decided to head straight for Stourport so as to get off the Severn that night before it was running any harder than it was at the moment , rather than <b>going</b> <b>south</b> first . We set off again , locked down into the river and headed upstream . 
60695	go south	literally	Hengar Manor house and its cott ... Cottages Sleep 2 - 6 Camping South Penquite Blisland , Bodmin , PL30 4LH Tel : 01208 850296 Email : thefarm@bodminmoor.co.uk Camping and cottage & horse riding holidays on a working Bodmin Moor organic sheep farm . Around The Area Travel north and visit the port of Padstow , or <b>go</b> <b>south</b> to Polperro , a popular coastal village . 
66190	go south	literally	On finding that most of the men had gone southward to hunt , he resolved to follow them , for his purpose was to consult about the Kablunet , who had so recently fallen like a meteor from the sky into their midst . " But you will stop here , Nuna , with Nunaga , and tell the women all about the Kablunet , while I <b>go</b> <b>south</b> alone . Make a feast ; you have plenty to give them . 
67783	go south	literally	Fri 24 Sep 2004 Friday Film Fuckupedness Posted by StopsAtGreen under general , miscellanea " Three terrorists <b>going</b> <b>south</b> on Baqalaqadaqa street ! " Hang on , World ... Team America are on their way ! 
69670	go south	literally	But , but ... late shock news ! No sooner was this decided than Blanco <b>went</b> <b>south</b> to visit some relatives , both human and hilly . He paid a visit to Abberley : nice hill . 
77696	go south	literally	On the Gosport side the pipeline makes landfall near Foxbury Point in Fleetlands . From here it <b>goes</b> <b>south</b> through Bedenham , RNAD Frater , Priddy 's Hard , and under Forton Lake to the Oil Fuel Depot . A booster pump house was located just behind the North Star Pub , and was kept in running order until it was demolished in the 1990s . 
79105	go south	literally	All at various time had a most welcome cup of hot coffee at Sett 's house in Taunton for it was a very cold night . All members who <b>went</b> <b>south</b> are very grateful to Mr. and Mrs. Morris for all the trouble they took to make our weekend so successful . Everyone who went agreed that is was as good as weekend as they had ever spent . 
81029	go south	literally	10th July : Grey morning . We <b>go</b> <b>south</b> on road 35 towards Selfoss , then SE to reach Myrdalsjí€Œ_kull in the evening . A few Gannets near Eyrarbakki where we see our first Long-tailed Duck , a male in breeding plumage ! 
88589	go south	literally	From the 1840s an expanded section of the east coast fleet participated in this fishery and by the 1870s the fleet involved could exceed 1000 boats . In the 1860s some boats began <b>going</b> <b>south</b> to East Anglia for the big autumn fishery there . Initially there was little involvement of Scottish curers in this fishery , but by the 1880s this could involve over 200 boats . 
89954	go south	literally	Picts of Scotland also had Brythonic roots . Goidelic Celts first <b>went</b> <b>south</b> into Turkey , which has always been a crossroads of trade and ideas . Hittites , also Indo-Europeans , arrived there around 3000 B.C. , before the Celts . 
93441	go south	literally	As passengers watched for a replacement engine , one passenger remarked to me that this situation was making an anorak of everyone ; I explained that whilst I was an anorak , I had left the said garment behind on account of the weather . Another lady asked me if the loco that had just <b>gone</b> <b>south</b> through the centre road was for our train . Without getting too technical , I explained that 92 022 would have one or two problems getting to Holyhead ! 
97040	go south	literally	If you want to study gulls in the area you could do no better than the rubbish dump near Yalova . On the south shore of the Marmara Sea the road to Bursa <b>goes</b> <b>south</b> from Yalova , about 5 km south of the town the dual carriageway passes an obvious rubbish dump on a hill to the west of the road . You can turn right onto a road next to the dump , drive up 300m and then turn left straight into the dump . 
97460	go south	literally	All the time we 'd been travelling south from Chamonix I 'd been noticing the mixture of colours in the woodland . It looked as if autumn was on its way , and undoubtedly it was , but becaue we were <b>going</b> <b>south</b> I thought that evidence of autumn should have been decreasing . Up to a certain height above a valley floor all was green , then browns appeared and eventually every tree higher up the slope , where there was less water and probably less soil , had brown leaves . 
102013	go south	literally	He is hindered by want of money . Having been forced to borrow already in order to live , he will have to borrow again if he is to <b>go</b> <b>south</b> . As he cannot be long absent from his district there will be no possibility of transcribing very much . 
103939	go south	literally	Norris apologized for being late and this was due to Pascal not looking where he was going whilst carrying a case of pop to the boat and walking off the end of the jetty straight into the water . Rainbow Runner Today we were heading out to the drop off again but this time we were <b>going</b> <b>south</b> west . It was a long run out to the area on which we wanted to ply but we interrupted it by trying for some Rainbow Runner over an area that Norris knew well . 
107432	go south	literally	A large airport has been established at Mount Pleasant west of Port Stanley and there are regular flights to the United Kingdom ( refuelling on Ascension Island ) . The British Antarctic Survey has a supply base at Port Stanley and most of their personnel fly into Port Stanley before <b>going</b> <b>south</b> to Rothera by ship or by Dash 7 , the British Antarctic Survey plane . 
111460	go south	literally	From East Get onto the M8 motorway . At Junction 8 of the M8 , turn onto the M73 <b>going</b> <b>south</b> . Follow this for about a mile , then at M73 junction 1 turn onto the M74 going West/Northwest , and follow this for just over four miles before parking your car . 
111547	go south	literally	Even more worryingly , the signs had suddenly petered out as I 'd crossed the border . A little while back I thought about doing a Diamond Geezer-style walk - to <b>go</b> <b>south</b> as far as I could possibly go . I could probably go as far as Bromley Common , I thought - but I 'd hit problems at Sundridge Park Golf Course , closed off to the public . 
113510	go south	literally	Worldcon was successful , and I eventually settled on some good accomodation in traffic island embankment in between carparks near the SECC , instead of the 6 mile cycle up the road to a campsite . On the freesteel note , I <b>went</b> <b>south</b> to try selling this software . It 's not often that someone comes up with a new machining algorithm . 
114316	go south	literally	You can drive on the motorway from the Channel - it 's not the outskirts of Paris by any means , you can see the Eiffel Tower half a mile away - on their equivalent of our circular road . You can circle Paris if you want to , and you can pick up the motorway <b>going</b> <b>south</b> without stopping at a single traffic light . It 's an enormous complex of interchanges and multilevel high-speed avenues , and the French seem to drive much more aggressively than people do over here . 
115690	go south	literally	Going there we saw four Red-rumped Swallow flying together towards south . Once in the path , we started <b>going</b> <b>south</b> and we got to an agricultural area with alfalfa and cornfields , and also some melon fields . The place seemed very good for larks and pipits , but we just saw some Crested Larks . 
115858	go south	literally	After many years of fluctuating fortunes and several different owners , the mines closed in 1962 and the site is now used as part of the French nuclear power industry . The second once a day route branched off from the first route at Les Pieux and <b>went</b> <b>south</b> through Surtainville to the beach resorts of Carteret , Barneville and Portbail . This had a morning journey inwards to Cherbourg , leaving Portbail at 0750 , with a 1700 hours return departure southwards . 
118087	go south	literally	I assume the first run will just have to be cancelled if necessary . 06/02/04 The Isle of Mull has still not arrived back in Oban , the Hebridean Isles left Oban at 10:30 <b>going</b> <b>south</b> presumably doing the Colonsay sailing . The Hebridean Isles also did the Mull 's 08:00 run . 
118213	go south	literally	food , shops , toilets , showers Oxfordshire , Abingdon Where ? Rye Farm Pay & Display car park , on the A415 <b>going</b> <b>south</b> from Abingdon , on the left hand side just across the river bridge . How much ? 
121283	go south	literally	The ship might have been able to keep going if the wind had been from a different direction . Unfortunately for us the weather was coming from the south west and we wanted to <b>go</b> <b>south</b> east . Sailing in that direction would have put the ship side-on to the worst of the weather and we would have rolled just a little ! 
122388	go south	literally	Time to get out the gear Spring is in the air ! Time for all the í‰äóÖfair weatherí‰äó» anglers ( the ones that disappear when the Swallows <b>go</b> <b>south</b> ) to get their gear out from the shed for inspection . Providing everything was placed away in good order in your tackle/seat box , there should be no mass overhaul of equipment needed for that first outing . 
124372	go south	literally	Note the low banisters and low ceiling at the top of these stairs . From the main hall , go up 7 steps , going north , 7 west and 7 <b>going</b> <b>south</b> to the first floor . From the first floor hall , starting north , go up 19 steps in all , curving round ( 180 degrees ) to the left . 
128303	go south	literally	To determine whether it is N or S , look at the latitude values at the edge of the map and find the direction in which they become larger . If they are larger going north , use N ; if they are larger <b>going</b> <b>south</b> , use S. ( g ) The latitude for the cemetery is 32í‰ŒÁ19'06"N . ( 6 ) To determine the longitude , repeat the same steps but measure between lines of longitude and use E and W. The geographic coordinates of Wilkinson Cemetery should be about 32í‰ŒÁ19'06"N and 84í‰ŒÁ47'32"W ( Figure 4-5 . 
136370	go south	literally	By 1960 its capacity was insufficient for the ever increasing size of vessels , so new locks were built . Day 3 ( cont. ) - Simpelveld and Maastricht canal trips After lunch we <b>went</b> <b>south</b> to Simpelveld where , after looking round the workshops , a Swedish Nydqvist and Holm locomotive of 1914 was in steam to carry us along the í‰äóÖMillions Line ' so called because it cost about 1 million guilders per km in 1934 . This connected coalfields with the Maastricht to Aachen line at Simpelveld . 
138398	go south	literally	Sir Peter King , the present Lord Chief Justice of the Common Pleas , and many others . I shall take the north part of this county in my return from Cornwall ; so I must now lean to the south , that is to say , to the south coast , for in going on indeed , we <b>go</b> <b>south</b> west . About 22 miles from Excester we go to Totness , on the river Dart . 
140755	go south	literally	Halfway down West Hill 50 1632 1999-09-29 A3 Kingston Vale S Kingston Vale . <b>Going</b> <b>south</b> shortly after ASDA store . 50 1633 1999-09-29 A3 Kingston Vale S Kingston Vale . 
140756	go south	literally	50 1633 1999-09-29 A3 Kingston Vale S Kingston Vale . <b>Going</b> <b>south</b> 200 yds after A306 junction . 50 1634 1999-09-29 A3 Kingston upon Thames S Kingston By Pass . 
140757	go south	literally	50 1634 1999-09-29 A3 Kingston upon Thames S Kingston By Pass . <b>Going</b> <b>south</b> just after Coombe Lane flyover before Carters Bridge . 50 1635 1999-09-29 A3 Kingston upon Thames S Kingston By Pass . 
141952	go south	literally	During this period , he studied for an external BSc in Maths . He taught in St. John 's for seven years before <b>going</b> <b>south</b> , but two years later , he returned to Dundee , where he was to stay for another nine years , ending as Deputy Headmaster of the school . Obedience sent him south once again , this time to St Joseph 's College , where he was to stay for 18 years until he reached retiral age . 
145024	go south	literally	Both have several lines feeding into them and unusual workings . Preston had the Blackpool to the North excursion trains that <b>went</b> <b>south</b> through the station onto the loop and then came back north through the station . Skipton had the Boat Trains where the Leeds and Bradford portions were joined . 
145235	go south	literally	Sailing to Coos , Rhodes , Patara , and passing on the south side of Cyprus , they came to Tyre ( which is now in Lebanon ) where they stayed one week . Then they <b>went</b> <b>south</b> to Ptolemais and to Caesarea where they stayed many days ( Acts 21:10 ) . Then Paul goes to Jerusalem , where the third journey ends . 
146172	go south	literally	The weather dictated which way we went from here as south the clouds were disappearing whereas north was getting inky black so south we went . I have never <b>gone</b> <b>south</b> of here before but it is a route I can recommend for the beautiful scenery alone . First stop was Little Gruinard beach where I came across an unexpected year bird . 
149506	go south	literally	IS Brazil has identified the following areas : Barcelos on the Rio Negro , an area traditionally not thought to have any cases . The early settlers who first brought Hansen 's to Brazil ignored the Rio Negro and <b>went</b> <b>south</b> and west along the Amazon , Solimoes and Madeira rivers . Sí€Œ£o Gabriel de Cachoeira further upstream on the Rio Negro . 
153741	go south	literally	" " O stupid one ! Do you not understand that you are only to pretend to <b>go</b> <b>south</b> ? When you are well out of sight , then turn north , and make for the berg . 
154041	go south	literally	Bude - North Cornwall southwest England UK Whalesborough Farm is 2 miles from Bude on the A39 . <b>Going</b> <b>south</b> from Bude on the A39 , there are two left turns for Marhamchurch , opposite the second one just by the canal there is a right turn with a signpost for " Woodland Tearooms " . Take this turning , drive past the tearooms carpark , continue up the track to the farm . 
160288	go south	literally	I got to Belur and realised that Lonely Planet did n't say which way the temple was . I <b>went</b> <b>south</b> by instinct , ( in the blazing sun ) and was soon assailed by a drum beating , raffeta waving dervish demanding alms . I avoided her , and found the temple , and looked round it . 
161633	go south	literally	Most of the Scots-Irish coming to Pennsylvania came as indentured servants . When their terms of service were over they found local land too expensive and so <b>went</b> <b>south</b> into the mountains . It is generally perceived that this ' lower ' class of immigrant resulted in the ' poor white trash ' or ' hillbillies ' of Deliverance fame , although the truth is that to survive in the Southern Mountains you needed to be resourceful , healthy , and knowledgeable . 
162792	go south	literally	The A24 , now known as London Road , heads for Ewell , which is now bypassed in a multiplex with the A240 Kingston to Banstead ( for A217 ) road . Coming north , the A24 turns off the A240 , but <b>going</b> <b>south</b> the A240 turns off the A24 , and the A24 then continues into the centre of Epsom and Ashtead . It is primarily because of the lack of bypasses for these towns that A24 traffic from central London is directed to use the A3 to Hook and then the A243 to Leatherhead . 
165795	go south	literally	The Yerby Conference Center is the first building on the right. * From the northeast ( Nashville , etc . ) : Take I-40 to Jackson , TN and <b>go</b> <b>south</b> on Rt . 45 to Rt.18 . 
15606	go under	figuratively	You will be lucky . In the current climate you have to <b>go</b> <b>under</b> cover to work with people who want to go quickly to abstinence , and conversely you have to deal with derision if you mention the words Outreach or Low Threshold . The only story seems to be that the methadone / cruel to be kind policing should draw the cash , and there is a phobia about anything that questions this as the way forward . 
17207	go under	figuratively	What 's the best tactic in these situations ? Buy late and risk not getting the flight we want or buy early and make sure our holiday insurance is good ( and still risk not getting the flight if the airline <b>goes</b> <b>under</b> ) ? david_r98 .. . 
20674	go under	figuratively	19 February 2003 GOING , GOING , GONE ! : More hot property is <b>going</b> <b>under</b> the hammer next week , with the third auction by the Council 's City Property Team . 18 February 2003 SUPPORT FOR NEIGHBOURHOODS IN NORTH SHEFFIELD : A new initiative to bring jobs to Chapelgreen , Stocksbridge and South Wortley has been granted around í‰Œ£ 60K by European Objective 1. 18 February 2003 HIGH HAZELS KIDS ARE ACE AT SPACE ! 
24705	go under	figuratively	An application written for GNOME or KDE can be installed under /usr/local later , after you download from the net and build it yourself . But the KDE and GNOME environment and development files are likely to <b>go</b> <b>under</b> the system directories during installation . There 's really no reason to change this. red hat manual says the boot partition should be about 16meg and the root partitiion about 500m - 1 gig . 
32378	go under	figuratively	" Danny has had injury problems this season but is someone , from a purely footballing perspective , that I would like to do something with , " he said . " I will speak to Danny and see what we can do but I am sure a lot of water will <b>go</b> <b>under</b> the bridge over the next few weeks . " If Tiatto did stay at Leicester then the need to acquire Welsh would be less of a priority , although Kelly is keen on doing business with both . 
43079	go under	figuratively	Like the race to the moon , or to the poles , the fierce competition between England and France to claim Australia was one of history 's most momentous . Rare documents and maps <b>going</b> <b>under</b> the hammer at Sotheby 's in Melbourne tonight highlight just how close Australia was to being claimed by the French... more Add a comment . 28.11.04 Estate sale buy yields a delicious treasure . 
47604	go under	figuratively	I 'm starting to believe he 's going to out-live me . Anyway , Keef has spoken for the first time about <b>going</b> <b>under</b> anaesthetic ; and , guess what , it was a really far-out trip , man . " I was pissed off when they woke me up , " he told a 3am Girl . 
48576	go under	figuratively	One of those forts was the hill fort at Strathrory over the hills to the south ( between Edderton , on the shore of the Dornoch Firth ; and the Cromarty Firth . ) The whole district was formerly <b>went</b> <b>under</b> the name of " Westray " which is of Norse extraction . The village of Edderton is situated some 5 miles north of Tain on the A836 road to Bonar Bridge , on what is now known as the Struie by-pass . 
53965	go under	figuratively	He , in the court of law of God , took it on Himself . He went into the melting pot of God 's wrath and fire , He <b>went</b> <b>under</b> the sword of God 's war : ' Jehovah bade His sword awake , Oh Christ , it woke ' gainst Thee ! ' Listen to this : ' I cannot find a man to fill the gap ' , but hallelujah , we can say here at this side of Calvary : ' There is one man , one mediator between God and men - the man Christ Jesus ' - hallelujah ! 
55445	go under	figuratively	He gave evidence to show that he was at work on the dates affecting the deposit of the cases at Brighton and Kings Cross . Mancini also <b>went</b> <b>under</b> the name Jack Notyre . After the interview Donaldson found no grounds for detaining him or charging him . 
59841	go under	figuratively	Not only will this let the customer know that you are serious about the late payment , but it will allow you to spend time more productively on those accounts which are less overdue . How to deal with Bad Debt What would you do if one of your major customers <b>went</b> <b>under</b> , owing you a substantial sum ? Would you be able to recover the outstanding debt - or reclaim goods they had not paid for ? 
74428	go under	figuratively	" Ironically , both Addison and Nicholas - owed í‰Œ£ 13,500 between them on the creditors list are behind ex-Swans chiefs John Hollins who is seeking í‰Œ£ 250,000 compensation . Connolly added : " The club almost <b>went</b> <b>under</b> in 1985 . I really fear for them this time . 
74600	go under	figuratively	Come to Greenwich before October 2006 when tall ship , Cutty Sark <b>goes</b> <b>under</b> wraps for a three year major conservation programme . Experience the fascinating and historic crew and Captainí€Œ¢í‰ä‰åí‰ä‹¢s quarters and admire the fantastic figureheads and delightful views of the Thames . 
93919	go under	figuratively	24/1/96 Added some new links I 'd been planning to add for some time now . 12/12/95 Found out that Deadline has <b>gone</b> <b>under</b> and has stopped publishing , possibly forever . Found out that Tank Girl has gone up 50p because of that . 
110246	go under	figuratively	Take BT for example . Obviously thatí‰äó»s not about to <b>go</b> <b>under</b> , but it is facing tougher competition from other companies , . For them to be more competitive , they need to have better cost control while still offering a quality service . 
113804	go under	figuratively	Testing gives an educational framework in which we must be taking the edge off flair and creativity , things that we have traditionally been good at . It has been suggested that we have a whole system that rewards a narrow band of skills that <b>go</b> <b>under</b> the heading of academic . We as a mature gathering here at conference have enough experience to know the full meaning of the phrase í‰äóìA balanced lifeí‰äó . 
116045	go under	figuratively	But two years after it came onto the market in 1994 , Cal- gene withdrew it as a complete failure . The company would have <b>gone</b> <b>under</b> , but was saved when Monsanto bought it out . The tomato failed for various reasons . 
120380	go under	figuratively	03-12-2003 Three dead in helicopter crash - From BBC - Three men have been killed in a civilian helicopter crash near a village in Hampshire . 03-12-2003 Concorde parts auctioned - From This is London - Spare parts from Concorde ranging from a í‰Œ£ 320,000 nose cone to ashtrays have <b>gone</b> <b>under</b> the hammer in west London . 03-12-2003 Last Concorde lands - From BBC - The last Concorde has landed at its new home - the Bristol airfield where it was built . 
123087	go under	figuratively	All of a sudden it became very small fry . " Cursiter painting <b>goes</b> <b>under</b> the hammer to reach almost í‰Œ£ 13,000 Stanley Cursiter 's " Surf , Orkney " which sold for almost í‰Œ£ 13,000 last month Five paintings by two Orkney artists were sold for over í‰Œ£ 47,000 at a major auction in Edinburgh recently . Art dealers Christieí‰äó»s auctioned the paintings , which came from the Fleming collection , last month . 
125615	go under	figuratively	Having this amount of flexibility could be the make-or-break for many companies , particularly when trying to chase late payments from their own customers . The juggling act of keeping their own suppliers satisfied , while trying to manage customers ' payments , is one of the most common reasons for businesses <b>going</b> <b>under</b> . But having a simplified payment tool that gives SMEs cashflow assistance when they need it most could really help it grow . 
134387	go under	figuratively	This is a risky business . By going too soon or too late they may make an expensive mistake and <b>go</b> <b>under</b> . Pre TV ... Before the Second World War there was only one television studio centre in London - Alexandra Palace - but there were 21 film studios , each with several stages . 
143420	go under	figuratively	Nether Hall Farm Ltd , Mansergh , Kirkby Lonsdale , Lancs was active in the sale ring buying a number of lots to complement its expanding herd including the next four leading prices from the Gallowshieldrigg offering as well as the top price from the Dashes herd . Gallowshieldrigg Um , a 22 month Jockey daughter and out of Stockdales Joanne , <b>went</b> <b>under</b> the hammer for 2,700gns . Close behind on 2,600gns was Valedeh , again by Jockey but this time out of Dedswell Melanie . 
144349	go under	figuratively	A Bahamian representative from a professional body explicitly stated : " People are concerned that we are becoming a bit too influenced by the American society . Our ethics are <b>going</b> <b>under</b> the carpet , we forget our principles , the basic values , the things that make up the moral fibre of our society . " A Barbadian student summed up the situation accurately when she commented , " I think we try to develop Barbados through tourism but then in developing it we kind of push away our culture . 
152248	go under	figuratively	They have played on the same stage as some of the worlds greatest bhangra artistes . Rhythms is the name that they <b>go</b> <b>under</b> and their drummers are called Rhythmblasters ( under the name of Rhythms but still representing Dholblasters ) . The Rhythm Method The rhythm method are a three piece covers band from the Northants area consisting of Martin ( bass and vocals ) , Ritchie ( guitar and vocals ) , and Jerry ( drums and vocals ) . 
153026	go under	figuratively	It comes after hundreds squeezed into first-floor hall of The Auctioneer next door for the countyí€Œ¢í‰ä‰åí‰ä‹¢s first property auction last week . Sixteen of the 19 properties that were <b>going</b> <b>under</b> the hammer were sold . Adrian Hogarth , director of Cumbrian Properties , said : í€Œ¢í‰ä‰åí‰ñIt was a tremendous response last week . 
153538	go under	figuratively	Datageek - 21/09/2006 15:08 Point taken , Datageek . More than just a tad , I 'd say , which is partly why this place is <b>going</b> <b>under</b> . I had , in fact , more or less left ; but looked in today as I occasionally do , and saw someone asking where all the members had gone . 
158694	go under	figuratively	The US Postal Service unveil stamp celebrating the life and work of Dr. Seuss... more 27.10.03 . Historical Writings to <b>Go</b> <b>under</b> the Hammer... more 23.10.03 . Online retailer Amazon allows free searches in millions of pages... more 20.10.03 . 
159156	go under	figuratively	Employers list this watergate defence avoiding more than per . See premiums <b>go</b> <b>under</b> s are if it 's for . As a key per cent at . 
160078	go under	figuratively	But movie houses launched an anti-pay TV campaign that was eventually overturned in court . STV <b>went</b> <b>under</b> , but it would pave the way for the growth of cable and satellite programming , now in a majority of American homes . By now a legend in television history , Weaver became increasingly critical of the increasingly cutthroat and commercial nature of US broadcasting . 
166235	go under	figuratively	There 's no less reason to trust them than any of the other online storage companies , and various satisfied customers of Mozy can be found by googling . What happens if they <b>go</b> <b>under</b> ? Well , my data will be sitting on a hard drive somewhere . 
3826	go under	literally	" She sank slowly beneath the water again , and the others followed after her . ZOG THE TERRIBLE AND HIS SEA DEVILS CHAPTER 11 " The sun must be <b>going</b> <b>under</b> a cloud , " said Trot , looking ahead . They had descended far into the ocean depths again--further , the girl thought , than they had ever been before . 
4662	go under	literally	It was replaced by lights in the early 90s and whilst it 's still very congested , the situation is markedly better than it used to be . We pass Guildford College on the left , <b>go</b> <b>under</b> the Guildford to Cobham railway line and cross the ' York Road ' section of the A246 . After another half a mile , we pass the back entrance to the Royal Grammar School , and finally reach the end of the road , at the junction with North Street and the original A3 ( High Street ) . 
8487	go under	literally	Next job is to get the laminated glass cut . This is a tray to <b>go</b> <b>under</b> the cut out in the bonnet to catch water . On the left is an MDF mould , I treated this with release agent and layed the tray on top . 
11633	go under	literally	Kairi dropped her things and went too . When she was in the water , Tidus and Selphie both far away from her , she <b>went</b> <b>under</b> the water . She went deeper and deeper until the water got black . 
16438	go under	literally	" Amy , who has insulin dependent diabetes and suffers from Aspergers and ADHD , said she did not need help but started to disappear under the water . Brilliant " When she kept <b>going</b> <b>under</b> I pulled her on to my bodyboard , " added Jacinda who got Amy to shore before a member of the public went to call a lifeguard . " She just kept saying I feel dizzy and I have a headache , " said Jacinda who stayed with Amy while she was treated by ambulance crews on the beach . 
21867	go under	literally	When you reach the bottom of the " path " the Shrewsbury Canal will be right in front of you - though you may not realise it ! The tunnel is to the right , <b>going</b> <b>under</b> the road that you arrived on . The portal is bricked up above " water level " but it is still intact . 
23670	go under	literally	You 're almost there ! A tricky narrow bit here , as the path <b>goes</b> <b>under</b> a bridge . Through these gardens , then a fast swoop down under an underpass and just a couple of hundred yards to go . 
25552	go under	literally	We were not perhaps as much on our guard as we should have been , seduced by the attractive housing and pretty gardens , and so , when we went through a bridge and saw a group of boys aged ten to twelve , we did n't take much notice . But with them was an older boy and he made to jump on the boat as it was <b>going</b> <b>under</b> the bridge . Fortunately he thought better of it-- I think it was just too far away for him to do it . 
31956	go under	literally	374348 ) . <b>Go</b> <b>under</b> the railway arch ( Bluebell Railway ) and turn left on the footpath through the wood . When the footpath reaches the surfaced road , turn left on the road . 
32751	go under	literally	0115 9256819 Bridgnorth . Head for town Centre , enter Whitburn Street , turn left into High Street , <b>go</b> <b>under</b> Northgate Arch and take second turning on the right into Cliff Road . Leisure Centre is the first left.01746 761541 Club Phone 01746 264919 Burntwood . 
43644	go under	literally	When we did not jump from the path into the water ourselves , we were beaten into it . We stood shoulder deep in the water and sometimes our heads <b>went</b> <b>under</b> . The amazing thing is that nobody was eaten by crocodiles . 
53783	go under	literally	This is the reason for cruisers being limited to 12.2m length . They get through by <b>going</b> <b>under</b> the footbridge to the high end of the lock before letting in the water . The stern half of narrowboats have to fit under it and are likely to have about 8 " clearance to the cabin top . 
61568	go under	literally	The river , now in flood , looks like it does in the picture , but the sandy point on the right bank now extends into the middle of the river for most of the year . The river at this point is about to <b>go</b> <b>under</b> the Matlock to Derby railway bridge . The white track extreme left is a Cycling track and beyond that , three tennis courts . 
63769	go under	literally	As soon as you start the level , swing off to the left . There should be a big pillar that you can hide behind and <b>go</b> <b>under</b> to the other side . However , do not go to the other side or the Super Mech 's laser will hit you . 
63971	go under	literally	Read that backwards , in terms of winning order and : \o / -- Thomas Well , he 's wrong about " sh " not having a debugger , particularly since he 's using Bash ; " -x " certainly fits the bill . Step-by-step execution , no , but I think that would <b>go</b> <b>under</b> " full interpreter in debugger " . As to his length comparisons for different programs - certainly in regard to Perl - he had me cracking up . 
70947	go under	literally	An embankment protecting Sandwip , a large coastal island was breached marooning 1,200 familiesMany people faced hunger and disease caused by filthy water and rotten food . There was a crisis of drinking water as tube-wells <b>went</b> <b>under</b> floodwater . Diseases such as diarrhoea were rife within the country and medical aid was The flooding destroyed about 2.3 million tons of rice . 
71515	go under	literally	First we went to Cracow and looked around the village , where there was a statue of a big dragon which had something to do with their history . Then we went to a salt mine and <b>went</b> <b>under</b> ground to about 200 feet . There we saw many statues made out of salt and it was very interesting . 
72516	go under	literally	This Solomon guy must have been pretty important I think ! This delightful little alley actually <b>goes</b> <b>under</b> the canal , which you can see above . There is a road each side , and there is just enough room for a single person to get through . 
80591	go under	literally	Editors of America 's In Touch magazine gave 47-year-old Stone the top spot because she still looks stunning without the help of plastic surgery . The Oscar-winning actress - who has two adopted sons - has always insisted she would n't <b>go</b> <b>under</b> the knife to help keep her movie star looks . Earlier this month , Sharon - who last year sued a top plastic surgeon over claims he had performed a facelift on her - insisted she is happy to grow old gracefully . 
81350	go under	literally	It was also his will . The paper was thrust into a bottle which was thrown to the turbulent seas before SS Active and her crew <b>went</b> <b>under</b> . Strength to die The letter , like the bodies of the men , was washed up on an Orkney beach . 
84010	go under	literally	From M42 ... Stay on the M42 until you reach junction 5 , signposted for A41 Solihull . Continue on the A41 following the signposts for Olton ( turn right at the T junction and continue until you <b>go</b> <b>under</b> the railway bridge ) . Virginia House is on the left hand side at the turning for Brookvale Road . 
91637	go under	literally	But Ben knew they needed to get out of the water and climb into a tree and relative safety . Alexa tried to grab hold of a branch , but missed and <b>went</b> <b>under</b> . Ben was now separated from her . 
92651	go under	literally	This , of course , requires special precision tools ; two Jubilee clips and a small length of lumber . Cost : $ 4 ( though over here , one asks for ' hose clamps ' : saying ' Jubilee clips ' gets you a blank look down at the local DIY center. ) But first there 's a paper gasket that <b>goes</b> <b>under</b> the barrel , which fitsí‰äó_ none too well . Is this a pattern part problem ( not sure of the source of the gasket set ) or is it an age problem ? 
96898	go under	literally	On the 3rd January 2002 it was transported from the Royal Air Force Museum Cosford on its way to the Bristol Aero Collection at Kemble . The rotors have been removed because it would have been too high to <b>go</b> <b>under</b> the motorway bridges ( not to mention too wide ) on its journey . It was exactly 50 years previously to the day on 3rd January 1952 when it took its first test flight , piloted by C.T.D. ( Sox ) Hosegood , who met it at Kemble . 
98089	go under	literally	Best to get these things out of the way early - we saw what delaying an op did to Harry Kewell 's season last year . Stephen McPhail is also due to <b>go</b> <b>under</b> the knife - the achilles tendon that did n't get operated on earlier this year is the culprit this time . Both players should be back in time for pre-season training at the start of July . 
102984	go under	literally	Take the first left , Sackville Street , and continue down this , going straight ahead at the lights . <b>Go</b> <b>under</b> the railway bridge , and the Weston Building is 50 yards ahead on your right . The Weston Building is on Sackville Street , and the main UMIST campus is on the other side of this road . 
110428	go under	literally	Turn right along the A500 , take the third exit at the next roundabout . Shortly after this <b>go</b> <b>under</b> the railway bridge and turn left at the roundabout immediately after this bridge . Continue along beside the railway line to a set of traffic lights ( very near the railway station ) and bear right across these into Leek Road , following the signs for the A52 and Ashbourne . 
111603	go under	literally	Cambrian Printers are situated on the right hand side , immediately after the Shell Petrol Station on the right . Approach from the Midlands on the A44 Shortly after passing the Glanyrafon Industrial Estate you <b>go</b> <b>under</b> a railway bridge , continue for 1/4 mile and you will see Cambrian Printers on the left-hand side of the road , just before the Shell Petrol Station . 
114445	go under	literally	It is situated in depressing 1960's concrete shopping centre , but it is VERY good . Tel : 0208 560 3002 Three Bridges N97 #1p22 N2k #1p22 At Three Bridges ( 205 ) the railway actually <b>goes</b> <b>under</b> the canal . There is an additional lock ( 94 ) in the Hanwell flight , making six in all , between p22 and p23 . 
119283	go under	literally	í‰äóìI turned in the water to face her , it was an unbelievable sight . The bow rose in the air to a tremendous height and with her propellers still turning ; slowly began to <b>go</b> <b>under</b> . The saddest thing was that within minutes the sea was calm once again ; no sign of her or the epic battle she put up before succumbing to the overwhelming odds that finally destroyed h erí‰äó . 
122382	go under	literally	No floaters , so a different method must be found - and as the title suggests , it 's squash up the lemmings time ! The first lemming out of the leftmost exit goes down , and back - blcok him just as he <b>goes</b> <b>under</b> the big platform . Bash through the three leftmost pillars , and you 'll eventually have a load of crammed in lemmings , ready for " the big push " when you bomb the blocker . 
125782	go under	literally	TR on to the minor road then after 200m SA on a good track as road bears left [ 850m ] ( nb : to avoid ford go SA on minor road at start of point 7 ) . 8. Follow track to soon <b>go</b> <b>under</b> disused railway , then cross the River Eden by footbridge . Continue on track to meet B6259 [ 1.7 km ] . 
128753	go under	literally	yeah it is quite similar to oblivion and there are a few places that still sell them online but cant really say where lol if you do end up getting them make sure you get the night of the raven version of gothic 2. We were at the beach , Everybody had matching towels , Somebody <b>went</b> <b>under</b> a dock and there they saw a rock . But it wasnt a Rock is was a Rock Lobster....Rock Lobster ... . 
134088	go under	literally	From left to right they 're river , rail , canal and road - but that changes after Dundas Basin . We 're into what I call the ' two bridges ' run from the swing bridge to Dundas ( we <b>go</b> <b>under</b> two bridges ) . The towpath is narrow and rough in places - watch out . 
140968	go under	literally	The old route is not in use . We kept beside the steam on the right , <b>going</b> <b>under</b> trees until the path finally went along a field edge and , at the boundary we turned left ( sign in hedge , this also needed cutting ! ) . 
146244	go under	literally	) Cross over the railway and onto a grass track swinging left alongside the River for 0.4 miles . This fetches you out on a road ( mile marker 1.1 ) , from here turn right and head straight on , keeping right at the first junction and <b>go</b> <b>under</b> the bridge ahead of you on the path on the right hand side of the road . After a couple of hundred yards you will see another bridge . 
146320	go under	literally	Shortly after Paraiso , will be a golf course on the right side of the road . After passing the golf course , you will <b>go</b> <b>under</b> a railway bridge . Immediately after the railway bridge there is a left turn that heads to Gamboa . 
152770	go under	literally	There are pay and display car parks at nearby Union House and Linden Close . From the South:- On the A26 from Crowborough and Lewes , enter Tunbridge Wells and <b>go</b> <b>under</b> the railway bridge . Go straight on at the roundabout , and ' Union House Public Car park ' is on your immediate right . 
154543	go under	literally	We 're easy to find ... From Exeter ; Take the Cowick Street exit from Exe Bridge , following the road to Moretonhampstead . At the end of Cowick Street go straight ahead up Dunsford Road ( B3212 ) and continue for approximately 2 miles and you 'll <b>go</b> <b>under</b> a bridge and see us signposted on the right . From the Motorway/A38 ; Take Junction 31 onto the A30 heading West towards Okehampton . 
165628	go under	literally	Many of the constructions to be built are not yet started and the site still has fields and farmland around it . The road to Winterbourne <b>goes</b> <b>under</b> the railway line to the left of the picture passed the factory units built in 1935 under the shadow factory scheme . Engine test cells for the new , at that time , gas turbines can be seen in the left foreground . 
167396	go under	literally	Pub on the right Walk back up the road passing the post office on your right to the pub . Cross straight over with the school on your left,after a short distance you come to the old Midhurst to Chichester railway line where the road <b>goes</b> <b>under</b> at a bridge . Keep going up the road that starts to go uphill and take the footpath on the left shown in the photo on the right . 
511	in the same boat	figuratively	A poor Lampard impersonation . No impact?Try telling Sissoko that ; ) Seriously though,he 's <b>in</b> <b>the</b> <b>same</b> <b>boat</b> as Sheva but i think he 's coping better.From what i 've seen there 's very little to chose between him & Lamps . Ashley Cole - off the pace and simply not match fit . 
3150	in the same boat	figuratively	Most of the businesses I come across are fairly new to the marketplace and have n't build up a awareness of who they are and their unique brand value . Many of you will be <b>in</b> <b>the</b> <b>same</b> <b>boat</b> . If you are new to your market and no one has heard of you , why would they buy your products or services ? 
9615	in the same boat	figuratively	It is safe to say that my solution is ' different ' , because I take the exact opposite approach . All terrorists have only one enduring weakness -- they happen to be stuck <b>in</b> <b>the</b> <b>same</b> <b>boat</b> as us . Just as we ca n't smoke all of them out , they ca n't smoke us out . 
10238	in the same boat	figuratively	It is the same in the South , and the legislation is slightly different there . Private railways must produce a full-blown safety case , and they are <b>in</b> <b>the</b> <b>same</b> <b>boat</b> as we are . Consultants exist , but I do not have the costs . 
20058	in the same boat	figuratively	If so , maybe it would be cheaper for you just to buy the books . I sympathise with your circumstances in that time is running out but you must understand that every other student who posts on these forums is <b>in</b> <b>the</b> <b>same</b> <b>boat</b> as you and feels the same pressure . However , as Caz128 says these forums are here to help not to infringe copyright and if you do struggle with certain areas of the syllabus we will try and help if we can . 
23041	in the same boat	figuratively	Where to next ? How to manage other common pregnancy problems Get advice , swap notes and stories from parents <b>in</b> <b>the</b> <b>same</b> <b>boat</b> as you . Visit our discussion forums For more pregnancy and birth products visit the babyworld shop 
24220	in the same boat	figuratively	Please feel free to email me if you would like to . As I say I am in touch with several other people who are <b>in</b> <b>the</b> <b>same</b> <b>boat</b> as us and it is a great comfort to be able to talk to people in the same situation and to know that we are not alone . I spoke to my pharmacist yesterday and he told me that if they are having manufacturing problems with Moditen now it is quite likely they will discontinue it too . 
24745	in the same boat	figuratively	The format was very different , obviously we had five daysí€Œ¢í‰ä‰åí‰ä‹¢ rehearsal , and then we recorded in front of a live audience . Also I started that at the beginning , so we were all <b>in</b> <b>the</b> <b>same</b> <b>boat</b> . Whereas coming into this , there are some people that have been with it since day one . 
25569	in the same boat	figuratively	But this is not always available at all venues so take your own is the best advice ! One point to remember is that all of us stall holders are <b>in</b> <b>the</b> <b>same</b> <b>boat</b> , and if the event is lousy , we are all probably feeling as low as you . Packing up early and giving up is not the solution . 
25806	in the same boat	figuratively	We looked out , one for the other - and we still do . That is the kind of America I will lead as President - an America where we are all <b>in</b> <b>the</b> <b>same</b> <b>boat</b> . Never has there been a more urgent moment for Americans to step up and define ourselves . 
26061	in the same boat	figuratively	This shift , however , is in essence quite simple . It involves a mass acceptance that we all sail <b>in</b> <b>the</b> <b>same</b> <b>boat</b> í‰äóñ and that longterm issues sometimes demand short-term sacrifices . Understanding and solidarity are such necessary factors in human survival , and the prospect of wholesale global horror is such an enormous threat , that unity of purpose and resolution of age-old social schisms is not only necessary but also possibly inevitable . 
27470	in the same boat	figuratively	A fright from a bigger or more boisterous dog at this age may have a detrimental effect on your puppies character . A better course of action may be to enrol on a puppy socialisation class , they are usually relatively inexpensive and in the hands of a good instructor your puppy will experience other puppies of a similar age , everyone <b>in</b> <b>the</b> <b>same</b> <b>boat</b> as it were ! At a class you may learn some basic training exercises , house training tips , feeding tips and lots more . 
28585	in the same boat	figuratively	Excellent post , Witchy..... maybe we should all have a live Blood Pressure Feed on our blogs ? Posted by NiC on 13 October , 2004 at 5:37 PM I 'm <b>in</b> <b>the</b> <b>same</b> <b>boat</b> as NiC . When my mother was recovering from colon cancer surgery , we started keeping track of her blood pressure with a home monitor . 
31376	in the same boat	figuratively	Now the courts have told the government that they are not above the law : they cannot with impunity ignore a court judgment they did not challenge . In this respect , the government is <b>in</b> <b>the</b> <b>same</b> <b>boat</b> as the rest of us . The government 's reaction to this has been to lash out at individual judges , a reaction that has no place in a democratic society that respects the rule of law . 
32824	in the same boat	figuratively	Some of them are allowed to stay here but most are fighting for the right to stay and get treatments . Since I 've been coming to the Globe I have met so many lovely people <b>in</b> <b>the</b> <b>same</b> <b>boat</b> as me . " Myra , from Zambia , acts as co-facilitator to the New Beginnings group , and explains why it exists : " It was set up to deal with the needs of HIV positive Africans in the London area and is a great success . 
36999	in the same boat	figuratively	Also the knowledge about why the problems occur , and avoiding them can also help . Most of the time were <b>in</b> <b>the</b> <b>same</b> <b>boat</b> as Matthias , we only get to choose the technical side , markup and server code for a particular design , so choosing the correct way to do it is definitly important . -- Simon í‰Œæí‰Œæ 1 November , 10:10pm í‰Œæí‰Œæ # Btw , Box model problems can always be solved by not applying padding to an element you specify a width too . 
39285	in the same boat	figuratively	Sutton Hill welcomed the Irish and the Ugandans alike . ' Everyone was <b>in</b> <b>the</b> <b>same</b> <b>boat</b> , everyone together , all the kids got on ' . Linda Doolan - The Madeley Book . 
42454	in the same boat	figuratively	I believe his appointment was the correct decision for the welfare of the club . But now Michael has been put in charge it leaves everyone here <b>in</b> <b>the</b> <b>same</b> <b>boat</b> as we turn our attentions back to playing football . We find ourselves fighting our corner once again as we try to impress the new manager from now until the end of the season - a challenge EVERYONE will have to be up for . 
43529	in the same boat	figuratively	Any words of wisdom/direction appreciated Thanks David Rajeev Joshi ( Joshir ) New Member Username : Joshir Post Number : 2 Registered : 07-2004 Rating : N/A Votes : 0 ( Vote ! ) Posted on Tuesday , 13 July , 2004 - 09:32 pm : Hi I 'm <b>in</b> <b>the</b> <b>same</b> <b>boat</b> ! I 've posted a message on the difference in cost between an electric and wet UFH . 
43907	in the same boat	figuratively	It 's private whatever the problems . Sometimes we talk to our family or maybe a friend who is <b>in</b> <b>the</b> <b>same</b> <b>boat</b> , but a lot gets unsaid . " The paper details concerns that parents do not access the services available to them . 
45048	in the same boat	figuratively	Want to chat about your problems with your stepfamily ? Talk to other <b>in</b> <b>the</b> <b>same</b> <b>boat</b> in our forum ! 
47685	in the same boat	figuratively	I was very nervous about going but wish I had done it last year when I admitted I had a problem . For you people who think that you can handle this on your own , I have to say that GA is a group of people who are all <b>in</b> <b>the</b> <b>same</b> <b>boat</b> as yourselves and that they are the best thing that has happened to me since I admitted my problem . I am going again tomorrow and hope that there is now a light at the end of my tunnel . 
48556	in the same boat	figuratively	What Ií€Œ¢í‰ä‰åí‰ä‹¢m really getting at here is that I want to decide which candidate to back . Ií€Œ¢í‰ä‰åí‰ä‹¢m sure some of us are <b>in</b> <b>the</b> <b>same</b> <b>boat</b> . So perhaps we should go back to first principles . 
52294	in the same boat	figuratively	I 'll probably upset people on both ' sides ' , but I 'm not really here to make friends . The bottom line is that this is Civil Society , and we 're *all* <b>in</b> <b>the</b> <b>same</b> <b>boat</b> . If there are obstructionists , we can stand around pointing at them but while we 're doing that the boat is n't *moving* because our hands are n't on the oars . 
54488	in the same boat	figuratively	What training do you need ? Do n't worry if you have n't done any learning or training for a while : most people on any course you sign up for will be <b>in</b> <b>the</b> <b>same</b> <b>boat</b> . And set aside any bad memories you might have from when you yourself were at school : adult learning is all about helping you overcome any obstacles you come across . 
56891	in the same boat	figuratively	" Neil stayed close to second place but was n't able to re-take the slot as the grip began to fade late in the 28-lap race . " I think we were all <b>in</b> <b>the</b> <b>same</b> <b>boat</b> . No excuses , " said Hodgson . 
57633	in the same boat	figuratively	You 're more than welcome in the house where I live , but the kettle is about the limit of my cooking ability . I 'm delighted to say that I 'm <b>in</b> <b>the</b> <b>same</b> <b>boat</b> as Tim Radcliffe who wanted to learn to make bread on his sabbatical . He ended up watching Jamie Oliver making bread on one of his TV ; programmes . 
57960	in the same boat	figuratively	I would just like to know how much deficit we are to be faced with next year , because they ai n't going to let the rope slip , not one inch . Oh , and do n't bother trying to find a job in another Trust , Acute or Community they are all <b>in</b> <b>the</b> <b>same</b> <b>boat</b> . Janice , Norwich I work for Dudley PCT - Mrs Hewitt is constantly using us as the benchmark example - what all trusts should strive for . 
64241	in the same boat	figuratively	To the last post why didnt u take up RD - opens more doors i think ! C.A.Cashin athletekitch Posted - 04 Apr 2005 : 23:17:24 G'day I am <b>in</b> <b>the</b> <b>same</b> <b>boat</b> as James , BSc degree human nutrition and dietetics and decided not to become state registered rather to enter private practice following clinical placement . Only recently I have started my own company . 
64854	in the same boat	figuratively	Prednisone ( steroids ) are still my best friend/worst enemy . I do n't want you to have to be <b>in</b> <b>the</b> <b>same</b> <b>boat</b> . ( I 'd have to toss you overboard , but not without snogging you first. ) And do n't go giving it to the kids ! 
67749	in the same boat	figuratively	Last season Peter Crouch needed time to build his confidence and his team mates needed to get used to playing to his strengths . However , this time around a player <b>in</b> <b>the</b> <b>same</b> <b>boat</b> may not be afforded the same luxury of time . The obvious response to that is to say that we are surely better off if we no longer have to accept below par performances from individuals because of the strength of alternative options . 
69545	in the same boat	figuratively	The obsessive intrusive thoughts are the worst , it 's something that I am really struggling to cope with at the moment . The site is an excellent source of support , do continue to access it , just knowing that others are <b>in</b> <b>the</b> <b>same</b> <b>boat</b> makes me feel less alone in this . Take care x Back to top Nic Site Admin Joined : 03 Apr 2006 Posts : 58 Location : Derby Posted : Wed Jun 28 , 2006 9:33 pm Post subject : Hi Ally , Welcome to PNI-UK . 
71911	in the same boat	figuratively	He also said that I had been mistreated , which he openly admitted , not by him but by the Whitehall wallahs . I got the impression that he was saying to me that we were <b>in</b> <b>the</b> <b>same</b> <b>boat</b> really . We had orders and had to obey them . 
74951	in the same boat	figuratively	" Having always worked for myself I know the importance of making time for fun and taking regular breaks . I need to share stories and experiences with people and I have a network of colleagues and friends that are <b>in</b> <b>the</b> <b>same</b> <b>boat</b> . They help keep the balance . 
85360	in the same boat	figuratively	My name is Peter and I am 35 years old . I was born with a moderate hearing impairment and I am keen to contact others who are <b>in</b> <b>the</b> <b>same</b> <b>boat</b> . I communicate orally and lip read . 
86468	in the same boat	figuratively	So , I am now a pro-European . But this does not mean I 've decided how I will vote in the referendum - so we 're <b>in</b> <b>the</b> <b>same</b> <b>boat</b> ! After all , the ERM was the right idea at the wrong time and in the wrong way , and that mistake cost people their jobs and their homes . 
90288	in the same boat	figuratively	I was lucky in that my dad had regular employment and my mum did two or three other jobs as well . Although we were poor-six people in a two-up , two-down house-everyone else was <b>in</b> <b>the</b> <b>same</b> <b>boat</b> . Probably we were luckier than some in that working class district of Liverpool . 
91071	in the same boat	figuratively	Not an hour and a half is it ? I 'm <b>in</b> <b>the</b> <b>same</b> <b>boat</b> mate , i 've no idea what i 'm gonna do yet but i do n't want to miss AIC or stone sour theleedslads Jun 6 2006 , 10:46 AM England Definatley ! South of Heaven Jun 6 2006 , 10:53 AM QUOTE(theleedslads @ Jun 6 2006 , 11:46 AM ) England Definatley ! 
96287	in the same boat	figuratively	! First of all Zoe , I want to say I know exactly how you feel as I am <b>in</b> <b>the</b> <b>same</b> <b>boat</b> and we really MUST get together , you and me , we are not so far apart and reading your post just makes me want to give you such a hug ! Cyberhugs just do n't do it somehow do they ? 
97684	in the same boat	figuratively	I fully appreciate night time wetting is something she cannot control but i also feel that daytime wetting is preventable . I am sure there are other blokes out there <b>in</b> <b>the</b> <b>same</b> <b>boat</b> , just need a sense check and pointers on which direction to take now Cheers for letting me bore you all... ! 
102346	in the same boat	figuratively	HPI is dead in most of the bubble markets and I do n't think Ben is too concerned as the majority of the US has not seen the same level of hyperinflation . The UK and the bubble States in the US are <b>in</b> <b>the</b> <b>same</b> <b>boat</b> I think . The problem that Gordon faces which Ben does n't is that higher rates will pop the entire market and a recession is guaranteed in its wake . 
102890	in the same boat	figuratively	" In research it 's still important to deal with the don , " she says . " But in teaching , discussing what worked and did n't work with people <b>in</b> <b>the</b> <b>same</b> <b>boat</b> was much more important . " I 'm definitely going along to the speed networking event , " she says . 
102921	in the same boat	figuratively	My situation is a bit different - reason for IVF is that I have a genetic disease that I do n't want to pass on . This is why I had no ET first time - 4 out of 4 embies left on day 5/6 were affected with the disease ( although chance is 50 % so I was pretty unlucky ). I have n't seen anyone else here <b>in</b> <b>the</b> <b>same</b> <b>boat</b> , but I think a lot of my experience and emotions are similar to everyone else 's . Looking forward to getting to know you all . 
103634	in the same boat	figuratively	Call 020 7611 8442 or email events@wellcome.ac.uk SPEND YOUR WEEKEND POSITIVELY Do you want to talk with other HIV positive men about sex , relationships and life ? POSITIVELY SPEAKING is a free residential weekend workshop for gay men living with the virus to talk with other men <b>in</b> <b>the</b> <b>same</b> <b>boat</b> . The weekend takes place in Gloucestershire between 29 September and 1 October . 
114266	in the same boat	figuratively	We enjoy a good old laugh as well as a good cry . We are all <b>in</b> <b>the</b> <b>same</b> <b>boat</b> and we understand this is just the symptom not the cause . We may not be able to rectify your problems but we can listen , empathise and give support . 
115413	in the same boat	figuratively	Paradoxically , the producers/post houses ask for their usual mono trk ( supplied by my 702T ) and a multi-track iso configuration ( supplied by the Portadrive ) that their non-updated DV40's ca n't read . Deva users are <b>in</b> <b>the</b> <b>same</b> <b>boat</b> with other issues . Speaking to other mixers , it now seems that no matter what recorder you use those first days are rittled with compatability problems . 
115716	in the same boat	figuratively	" The England game is not ideal for us , " admitted Boanas . " But Fulham are <b>in</b> <b>the</b> <b>same</b> <b>boat</b> because they have plenty of players in the squad as well . " He added : " There is the potential for a few injuries , but the situation affects both clubs equally and we will have to see what happens . 
117402	in the same boat	figuratively	Best Wishes . The one and only J. Mon , 31 Oct 2005 , 17:03 - Luke well , in a way he 's <b>in</b> <b>the</b> <b>same</b> <b>boat</b> as me ! all i can suggest is..go through your yellow pages and call into the local Career Office and book a few interviews , i have been searching for an Apprenticeship since FEB'05 and have found nothing(not even an interview ) i have done well in school/college and just completed an ONC Sat , 29 Oct 2005 , 10:18 - concern parent Hello . 
120040	in the same boat	figuratively	It 's impossible to lipread everything , anyway . But by joining a class you 'll have another back-up to your hearing , plus you 're likely to meet other people <b>in</b> <b>the</b> <b>same</b> <b>boat</b> as you . For more information about lipreading classes visit : ATLA 's website at : [ www.lipreading.org.uk ] Or contact Learndirect at : [ www.learndirect.co.uk ] [ Back to top ] Last updated : Fri 26 Mar 2004 , 11:46 AM í‰Œ© hiype ! 
120047	in the same boat	figuratively	All my part-time earnings would be gone in a matter of minutes when it took hours to obtain them . Now , years later , and after a good break from those days I 've found myself <b>in</b> <b>the</b> <b>same</b> <b>boat</b> but the money lost would take years rather than hours to get . Over the last 2 years I 've lost thousands . 
122487	in the same boat	figuratively	Of course ! Everyone starts out <b>in</b> <b>the</b> <b>same</b> <b>boat</b> and the thought of gyrating around a pole in front of strangers seems daunting but by the end of your first session you will realise you had nothing to worry about and would have made some great friends . Q. Can I have my own style in the classes ? 
124514	in the same boat	figuratively	Married and unmarried couples , single mums and dads , sometimes other people who are looking after a new baby . It 's excellent if both parents-to-be can come , but do n't be put off if only one of you can , or if you 're on your own ( in some areas there are classes specifically for people <b>in</b> <b>the</b> <b>same</b> <b>boat</b> as you ) . In your group , there 'd be up to twelve parents-to-be like you , some there with their partners , some without . 
126247	in the same boat	figuratively	There was a great sense of belonging that was brought about by openness and sociability . Struggling to meet essay deadlines seemed a lot less onerous when you realised that we were all <b>in</b> <b>the</b> <b>same</b> <b>boat</b> ! In what way did living and studying in Birmingham live up to your expectations ? 
132682	in the same boat	figuratively	For a group it 's a great place to come and celebrate birthdays , stags , hens or works do'sí‰äó_but do n't expect any back slapping team building exercises . If you cant rope anyone into going with you , we have offers available for solo travellers - last year we had a lots of people taking this option up and because there are lot of people <b>in</b> <b>the</b> <b>same</b> <b>boat</b> by the end of the week they knew everyone in the resort ! Whats included in the package ? 
137358	in the same boat	figuratively	Some departments may give you access to their website before you arrive and you may find a bulletin board for new students . TIPS ON MAKING THE BREAK Getting through the first few days : do n't forget that although you may feel lonely at first , even when you 're surrounded by students , everyone is <b>in</b> <b>the</b> <b>same</b> <b>boat</b> . Freshers Week is designed to help students settle in . 
138987	in the same boat	figuratively	So put aside your inhibitions and come to GA . It cannot be silly to try something that has worked for thousands of others <b>in</b> <b>the</b> <b>same</b> <b>boat</b> as yourself . Give it a chance and give yourself a chance . 
140201	in the same boat	figuratively	I buy books , but the ones I like , and am interested in and not the ones that will make my uni lecturers rich . No need to be nervous , everyone is <b>in</b> <b>the</b> <b>same</b> <b>boat</b> and you will soon make friends . Just go with the flow for a while but keep on top of the paperwork. cal Mar 21 2004 , 07:53 PM Post #17 New Networker Group : Members Posts : 7 Joined : 20-March 04 Member No . 
140787	in the same boat	figuratively	It is not reasonable to ask our people to bleed rivers of blood for eight years then to tell them , " Now you have to accept aggression from Kuwait , the U.A.E. , or from the U.S. or from Israel . " We do not put all these countries <b>in</b> <b>the</b> <b>same</b> <b>boat</b> . First , we are hurt and upset that such disagreement is taking place between us and Kuwait and the U.A.E. The solution must be found within an Arab framework and through direct bilateral relations . 
140903	in the same boat	figuratively	I had no previous knowledge of Geology , apart from the aspects that were covered in GCSE Geography . This did n't matter because everyone was <b>in</b> <b>the</b> <b>same</b> <b>boat</b> as me and the teaching is very good . Our Geology group has all become good friends , especially since our coursework field trip to Spain . 
143765	in the same boat	figuratively	Some of the ships are owned by foreigners and they face the same difficulties . We 're all <b>in</b> <b>the</b> <b>same</b> <b>boat</b> , he said . " The Bassam I was confiscated along with $ 10,000-worth of diesel because the MIF accused it of smuggling oil which was intended to fuel the ship 's return trip , Jawad said . 
144856	in the same boat	figuratively	Colin felt at home in the unit . He loved his month there with people <b>in</b> <b>the</b> <b>same</b> <b>boat</b> as him . We would go out for meals as this was one thing Colin loved So when he came home we went out for a meal . 
145728	in the same boat	figuratively	Good luck with any bets today . DeeScribe Dundee Legend United Kingdom 698 Posts Posted - 15 October 2006 : 12:15:56 Yes , think we were all <b>in</b> <b>the</b> <b>same</b> <b>boat</b> yesterday . . 
146675	in the same boat	figuratively	If there is no God and no Creator , then we are impersonal machines that evolved accidentally from primordial energy particles , through time , plus chance . Regardless whether we believed in God or not , at the end of this life we are all <b>in</b> <b>the</b> <b>same</b> <b>boat</b> - just as dead . Let us eat , drink and be merry , for tomorrow we die . 
149600	in the same boat	figuratively	Ok now try and nick the car http://www.gotmail.jp/apps/destino_r_e.html - http://www.gotmail.jp/apps/destino_r_e.html Even harder than the bike lol . I 'm <b>in</b> <b>the</b> <b>same</b> <b>boat</b> you are r6tam , so doing these games keeps my mind off things lol . ------------- I 'm not suffering from insanity ; I 'm enjoying every minute of it ! 
150519	in the same boat	figuratively	But this seemingly flippant observation flagged up a significant issue . For the newly diagnosed the opportunity to meet others <b>in</b> <b>the</b> <b>same</b> <b>boat</b> , as well as giving them a chance to tap into the seasoned wisdom of long term survivors is important . So there may be some to point in continuing the old style drop-in after all . 
153032	in the same boat	figuratively	My apathy makes me feel just SO stereotypically American... off to vote ... At 4:04 AM , Christy said ... Spencer , welcome to Frustrated Incorporated . Everyone 's <b>in</b> <b>the</b> <b>same</b> <b>boat</b> as you are I guess . There is comfort in the thought that you are not alone . 
154534	in the same boat	figuratively	This nervous group had ' taken courage in both hands ' and went back to learning again . Because everyone was <b>in</b> <b>the</b> <b>same</b> <b>boat</b> , they encouraged each other . It was a team effort . 
156183	in the same boat	figuratively	It was as necessary for me to win some money this evening as it was for you . We 're <b>in</b> <b>the</b> <b>same</b> <b>boat</b> , Bunny ; we 'd better pull together . " " Together ! 
157483	in the same boat	figuratively	" You hope for the mercy of Allah and hope that the angels or the Prophet will intercede for you in the last day , so you will be saved from Hell . I was like you , my Muslim sister or brother , right <b>in</b> <b>the</b> <b>same</b> <b>boat</b> until I knew that you can be absolutely sure of going to Heaven . Tears well up in my eyes just to recall how lost I was and now that I am found . 
167551	in the same boat	figuratively	If I had one . Without wishing for a moment to put Ross <b>in</b> <b>the</b> <b>same</b> <b>boat</b> as Parkinson , I think the Cameron interview on Friday was similarly lightweight and ill-prepared . The Thatcher bit was just boring and went on for too long , by which time he 'd completely lost momentum . 
18715	in the same boat	literally	The physically strongest crews may not be able to work at their maximum because of technical weaknesses . Once they are <b>in</b> <b>the</b> <b>same</b> <b>boat</b> differences in application will affect the crew as a whole and they will be working against one another rather working together . On the other hand there are crew 's who perform greater than the sum of their parts . 
45254	in the same boat	literally	Asked if an army can be made to imitate the shuai-jan , I should answer , Yes . For the men of Wu and the men of Yueh are enemies ; yet if they are crossing a river <b>in</b> <b>the</b> <b>same</b> <b>boat</b> and are caught by a storm , they will come to each other 's assistance just as the left hand helps the right . 31 . 
62877	in the same boat	literally	They are more stable than kayaks and far less cramped . For this reason , and because carers can be <b>in</b> <b>the</b> <b>same</b> <b>boat</b> , they are also frequently used to open up the experience of canoeing to people with disabilities . Although open canoeing is widely perceived to be about sedate touring open canoes come in many shapes and sizes , from family-sized to one-person river-runners . 
15140	in the toilet	figuratively	It 's so painfully obvious . Why do you think our stock 's <b>in</b> <b>the</b> <b>toilet</b> ? Because you 're cutting research and development in half . 
1197	in the toilet	literally	My class put on a show to say goodbye to me when I left school in April 1970 . I remember the toilets <b>in</b> <b>the</b> <b>toilet</b> block freezing over in winter and having to line up in two queues to use the staff room toilets . Other memories include : Snowball fights in winter hiding behind giant snowballs . 
5478	in the toilet	literally	Why not give Bob Bagshaw a surprise this year by sending in your subscription ( 25/- ) and your membership card on time ? Can Belfry users help ensure that the two small sump-heaters <b>in</b> <b>the</b> <b>toilets</b> are kept filled with paraffin and lit during the winter . The heater will burn continuously for a week and help prevent the waterworks from freezing . 
7867	in the toilet	literally	The School is made up of a series of light and airy rooms around a central cloakroom area , all of which is cheerfully and brightly decorated , reflecting the atmosphere amongst the staff and children . ( The lime green walls <b>in</b> <b>the</b> <b>toilets</b> gave me inspiration and confidence for my home decorating ! ) . 
19237	in the toilet	literally	Few dragonflies , but the common one was a hawker with a royal blue body and apple green thorax and eyes . Several large spiders including one <b>in</b> <b>the</b> <b>toilet</b> at Ampijoroa , and other thick-bodied beasts with webs over running water . Giraffe-necked Weevils ( male and female ) and green stick insects , mostly at Perinet . 
19700	in the toilet	literally	I arrived at the place , exhausted and just wanting my sleep . I waded through the drunk revellers ( stag nights on the cheap etc ) , avoided the smell of sick <b>in</b> <b>the</b> <b>toilets</b> getting to me , and got myself into my individual prison . It was n't too bad . 
22046	in the toilet	literally	Despite all the warnings about the dangers of ecstasy , many young people continue to use it . This has led to ' safer dancing ' campaigns that encourage clubs to have ' chill out ' areas , make sure staff are train ed in first aid and ensure the water taps <b>in</b> <b>the</b> <b>toilets</b> are working . ( So me clubs were turning off the taps and charging large amounts of money for bottles of water ) . 
26360	in the toilet	literally	For the first time he has had the occasional dry night . Other nights he now manages to stop and finish off <b>in</b> <b>the</b> <b>toilet</b> . The down side is the disturbed nights , of course with twins it would be much worse ! 
31370	in the toilet	literally	I took my girlfriend to a game in its inaugural season . After 10 overs or so , she decided that tipping red wine all over herself and hiding <b>in</b> <b>the</b> <b>toilet</b> for an hour would be preferable to the action in the middle . Mind you , we were at Worcester and sitting in front of some deranged , bellowing old scrumpyhead going by the name of Captain Crazy ( with the hat , t-shirt and business cards to prove it ) , so it was vaguely understandable . 
35043	in the toilet	literally	Gresley TTO 56856 Progress on this third open has been slow , with the main focus of volunteer effort being directed at the HLF project . Work on 56856 has been confined to sanding the saloon ceiling , cutting holes for water pipes <b>in</b> <b>the</b> <b>toilet</b> ceiling and curing some leaks in the roof . While this may sound worrying , the main leak was around the roof tank filler , which had missed having Firecheck applied last year . 
39455	in the toilet	literally	When you 're leaving Zante it is a nightmare , but now you know you 'll be prepared ( again trying and keep chilled ) . The airport prices for snacks etc are expensive and the departure lounge is packed - the only tip I can give is go downstairs to the toilet area , it 's very cool down there and when we were there there were n't many people ( you 're not actually <b>in</b> <b>the</b> <b>toilets</b> - it 's a corridor outside ) . Good luck - Bev 
40955	in the toilet	literally	Flush toilets inside to empty the cistern . Place a small amount of de-icer <b>in</b> <b>the</b> <b>toilet</b> bowl , cistern and all sink plug holes . Other tips . 
41600	in the toilet	literally	Did I wait until the next train ? Did I ( as someone suggested later ) hide <b>in</b> <b>the</b> <b>toilets</b> ? Of course not . 
44939	in the toilet	literally	A few months ago I witnessed a woman and a chap having an argument , withing ten minutes it got physical ! He hit her with the back of his fist accross the face , she retaliated by punching him etc. She then ran and locked herself <b>in</b> <b>the</b> <b>toilets</b> of a pub and asked for the police to be called , which had already been done . The police arrived , separated them both , then asked me what happened ? 
46996	in the toilet	literally	McDonalds was an option as it backed onto the ground , as was the stadium hotel . Some reds had sneaked in in the afternoon and stayed for 5 hours <b>in</b> <b>the</b> <b>toilets</b> until the game started . Others tried to scale the outer fence , - one lad dropped at least 30 foot - to a chorus of cheers from reds and got piled on like a kid used to on his birthday as a 10 year old by the again ' overworked ' stewards . 
48194	in the toilet	literally	Ladies ' conveniences were adequate but below average on cleaning and maintenance . The general smell <b>in</b> <b>the</b> <b>toilets</b> was n't too bad , although in one trap , someone had recently chundered and the resultant pavement pizza could be smelled from well outside the doorway . Overall the toilets at Newcastle were reasonable if inconsistent . 
49547	in the toilet	literally	It is time we admitted that this country is filled with drug-users . From the granny who sips cannabis tea for her arthritis to the management consultant snorting charlie <b>in</b> <b>the</b> <b>toilets</b> of Stringfellows , from the council estates to the grand estates , we are a nation of druggies . We have to grow up about drugs , and banish the false rhetoric , misleading statistics and silly mythology of the well-meaning but dishonest anti-drugs lobby . 
50676	in the toilet	literally	" Jabberwocky"í‰äó_what did it mean ? Later that day <b>in</b> <b>the</b> <b>toilets</b> at Blackhorse Road Underground Station , I heard the word " Jabberwocky " again . It came unmistakeably clearly , from behind the third door from the end , marked " For Film Producers Only " . 
51688	in the toilet	literally	Clinics will have six months to register , at a cost of RM1,500 . The Act includes detailed guidance on every aspect of how clinics should be run , ranging from limits on the fees that can be charged , to making sure that there is adequate toilet paper ( on a holder ) <b>in</b> <b>the</b> <b>toilet</b> . One requirement that has attracted particular comment is the need to provide basic outpatient emergency care services for any occasional emergency patient brought to the clinic . 
59861	in the toilet	literally	Roslyn Coulson ( Sigrid Thornton ) Daughter of Jackie Coulson . Toni McNally shoots Jackie <b>in</b> <b>the</b> <b>toilet</b> of a nightclub , when she finds out that she is having an affair with her husband Sean . Ros comes straight from convent school , investigates the shooting of her mother to find out the culprit , and when Toni is found non-guilty ( after having the witnesses threatened ) Ros shoots her outside the courtroom ( 63 ) . 
60842	in the toilet	literally	How many times have you used a toilet in somewhere such as a pub or restaurant and observed someone else walk straight out after doing their business without stopping to wash their hands ? I ca n't speak for female toilets , but this happens quite regularly in male toilets and especially <b>in</b> <b>the</b> <b>toilets</b> that are in pubs . What bothers me most though is that the doors to these toilets are quite often of the type that you have to push to go in and then pull with a handle to leave . 
61121	in the toilet	literally	En route from Heathrow , we stopped off at a self-consciously posh market to enjoy a posh hot dog ( wild venison sausage submerged in olive oil and wrapped in a thick slice of ciabatta ) , and its effects were pretty much immediate . Cocooned within my own bathroom a quarter of an hour later , staring sadly at my reflection <b>in</b> <b>the</b> <b>toilet</b> water , the irony was not lost on me . I had proved admirably resistant to Delhi Belly only to succumb to the Bermondsey Squits . 
73134	in the toilet	literally	-- we 'll be watching content on video iPods , downloading it on to mobile phones , streaming it into our broadband equipped homes , we 'll have broadband everywhere . We 'll be watching it on trains -- I had broadband on the train this morning , free of charge , courtesy of GNER -- in planes , in cars , in taxis , on our fridges , our wristwatches , <b>in</b> <b>the</b> <b>toilet</b> . There will be so many platforms , so much opportunity for content , but who will be making it ? 
75445	in the toilet	literally	A 3-course meal can cost you between í‰Œ£ 20-í‰Œ£30 per-head and downstairs , you will find a bar decked out with leather seating and dark woods - giving you that cosy-settle-in-for-the-night feel . Be careful of what you get up to <b>in</b> <b>the</b> <b>toilets</b> though - they are unisex and have frosted see-through doors ! Rivington Grill Bar Deli 28-30 Rivington Street , EC2 020 7729 7053 Tube : Old Street Open : Mon-Fri 12pm-3pm . 
81976	in the toilet	literally	As we become a little less agile there is equipment to help us manage all around the home , including <b>in</b> <b>the</b> <b>toilet</b> . In this section we have selected a range of products to help you preserve your privacy and independence . 
83014	in the toilet	literally	The applicant was employed by a charity that promotes personal development among young people . He was arrested with another man <b>in</b> <b>the</b> <b>toilets</b> of transport cafí€Œ© and later received a caution for gross indecency . The respondent dismissed him for gross misconduct . 
83427	in the toilet	literally	" Outdoor played a critical role in the launch of Pink Power " Cat Hey , Domestos Brand Activation Manager , Lever Faberge Domestos is involved in a vicious war . Not just against the germs that linger <b>in</b> <b>the</b> <b>toilet</b> but also against own-label rivals . Back in 2003 it was losing market share to perfumed products and its image remained big and blue , functional and clinical . 
84710	in the toilet	literally	At Meetings or interviews : There are no specific requirements , but some Hindus may require separate heating arrangements for meals and may not wish to use the same microwave or cooking range where meat , fish or eggs have been cooked or heated . Physical Hygiene : Orthodox Hindus have special cleaning rituals <b>in</b> <b>the</b> <b>toilet</b> and may require a mug or a cup of water to clean themselves after evacuation . Some will have a shower after using the toilet . 
85495	in the toilet	literally	Drinkers are safer if they keep control over their drink at all times . The drinks holder developed by bogbottle provides safe space <b>in</b> <b>the</b> <b>toilets</b> of pubs and clubs to protect against drink spiking . Advertising space on the holder makes it more attractive for business premises to install . 
87197	in the toilet	literally	In 1977 he was jailed for the murder of Richard Cunningham . Cunningham was supposed to have been kicked to death <b>in</b> <b>the</b> <b>toilets</b> of a pub during a drunken brawl . Smith , now on bail pending an appeal against his conviction , has always protested his innocence . 
88207	in the toilet	literally	On the other hand , the polar opposites have made for some nasty moments . A particular feud developed between Victor and Emma , when the latter accidentally burst in on him <b>in</b> <b>the</b> <b>toilet</b> . Victor cursed at her . 
89441	in the toilet	literally	The journey back was damp and misty , but we arrived in good time . For the last half hour of the journey to the bandroom Steven Haynes was locked <b>in</b> <b>the</b> <b>toilet</b> , and Ed would n't let him out . Ed was travelling on to York on the coach , and we never saw Steven at the club . 
89627	in the toilet	literally	Will look good when you get the back bumper done . Not a fan of the exhaust , but each to there own Posted by : Riles Jul 5 2006 , 04:43 PM a job dont you work <b>in</b> <b>the</b> <b>toilets</b> down there 1k a pump ! ! 
94285	in the toilet	literally	He developed a fascination with burning papers so we had to get rid of matches in the house . He also put all sorts of objects <b>in</b> <b>the</b> <b>toilet</b> - dishes , clothes , food - and would then flush the toilet over and over trying to get it to go down . The most bizarre thing was when he dug up our son 's dead dog , put it back in the pen and took food and water to it . 
99172	in the toilet	literally	WANTED Rubber Connector - Does anyone also know a source for the non-standard size toilet pan to flush tank rubber connection piece ? Class 107 Ltd. Valves - Does anyone know a source for the little footpump valves used <b>in</b> <b>the</b> <b>toilet</b> sinks ? They seem to retain water and freeze breaking the plastic top and both our spares are now broke , but repairable with a new top piece . 
100205	in the toilet	literally	However , her sister , fellow All Saint Nicole , has told Frank Skinner the real reason behind Natalie 's panicking - she suffers from OCD . " You can tell when she 's been <b>in</b> <b>the</b> <b>toilet</b> , because she 'll use a piece of tissue to open the door , get in there and turn on the taps . " Good friend Kate Thornton backed up the claims " The reason she freaked out in there is because it would n't have been cleaned . 
104011	in the toilet	literally	" The Hollybush " pub at Denford . We stopped here in 1990 and Danny tried to video Neil <b>in</b> <b>the</b> <b>toilet</b> ! Denford . 
104419	in the toilet	literally	Most of the team got to make close acquaintance with these friendly creatures that tried variously to enter our tents , make friends with anyone who ventured out of a tent at night and finally destroyed the toilet tent . A pair of bright green eyes appearing through the flap <b>in</b> <b>the</b> <b>toilet</b> tent is enough to cause anxiety to the strongest of hearts . We spent a day brushing up on our ice axe and crampon skills while attempting to climb an adjacent peak ( Golap Kangri ) . 
104836	in the toilet	literally	" do n't look at all ridiculous . " The star laughs : " I was as cramped as hell during the scene <b>in</b> <b>the</b> <b>toilet</b> cubicle . There was certainly nothing erotic about the sex scenes . 
106414	in the toilet	literally	It would be like going to a pub and having an advertiser throwing things into your conversation . No one minds the ads at the bar , on the walls of the pub , on the TV screen , <b>in</b> <b>the</b> <b>toilet</b> , etc. but you do n't want an advertiser directly intruding on your conversation . The web might be different to the real world in many ways , but there are some rules of acceptable behaviour that still translate reasonably well . 
107462	in the toilet	literally	If it is dirty , with a flushable liner , you just flush the liner and contents down the loo . If you are using a fleece liner , then the poo will normally fall quite easily off the liner , or if it is sticking then you can hold the liner ( and nappy if necessary ) <b>in</b> <b>the</b> <b>toilet</b> and flush . Then every day or two , you will do a load of washing . 
109990	in the toilet	literally	Toileting and incontinence " Confusion is often the cause of incontinence , so limit large drinks , label the toilet door with signs and dress the person in loose clothing . " The person with dementia may lose the ability to recognise when to go to the toilet , where the toilet is , or what to do when <b>in</b> <b>the</b> <b>toilet</b> . Confusion is often the cause of incontinence , but sometimes there are other possibilities so get professional advice . 
111923	in the toilet	literally	The posters list the toxins and say it is ` no surprise if you really do feel like death in the morning ' . They will be placed <b>in</b> <b>the</b> <b>toilets</b> of 15,000 pubs and clubs across the country , encouraging smokers to kick the habit . A new series of radio and press adverts will also focus on how to take your mind off the cravings for a cigarette . 
118005	in the toilet	literally	It can take days to get an appointment . We put two hundred in a box <b>in</b> <b>the</b> <b>toilets</b> , they were gone in five minutes. ' Not all problems have such obvious solutions . But until young people are given responsibility and their positive role acknowledged , opportunities for progress are being missed daily . 
118011	in the toilet	literally	Oh so many books , too many to rattle off . I love contemporary fiction but recently I 've been trying to catch up on the classics - that is the books I should have read at school but was too busy sitting <b>in</b> <b>the</b> <b>toilets</b> talking about boys . So I 'm currently listening to an audio book of Moby Dick ( unabridged ) whilst actually reading Girl with a Pearl Earring and Middlesex by Jeffrey Eugenides . 
127387	in the toilet	literally	What you ca n't see - because I cut it off - is the paper towel dispenser behind me . Yes , I took this photograph <b>in</b> <b>the</b> <b>toilets</b> . But I do n't want anyone thinking I make a habit of that . 
132250	in the toilet	literally	We help the elderly and disabled people of Swansea with painting work and gardening that they caní€Œ¢í‰ä‰åí‰ä‹¢t manage themselves . Have you ever seen six people crammed into a 4m x 2.5m bathroom , attempting to paint it without falling <b>in</b> <b>the</b> <b>toilet</b> ? You doní€Œ¢í‰ä‰åí‰ä‹¢t need any special skills to be able to help , just a few spare hours on a Wednesday afternoon . 
135704	in the toilet	literally	My boss is trying to make me give up the job and I 'm trying to prove my illness is due to job conditions . They even control the time I spend <b>in</b> <b>the</b> <b>toilet</b> . My lawyer is getting information to take the hotel to court . 
136366	in the toilet	literally	Pete Doherty Detained On Aircraft Pete Doherty was detained aboard an aircraft , on his way to the Primavera Festival in Barcelona , after a syringe was found <b>in</b> <b>the</b> <b>toilet</b> . During the flight from Gatwick to Barcelona , the captain radioed ahead to ask police to meet the flight when it landed at El Prat Airport . 
138602	in the toilet	literally	pilgrimages ! I am certainly the only one to have a concert ticket signed by Andy with the words " Nice to meet you <b>in</b> <b>the</b> <b>toilets</b> " ! I am very proud of this one ! 
138710	in the toilet	literally	Good sound , great crowd , no broken strings . Loads of gob and beer flying around , but no bogroll <b>in</b> <b>the</b> <b>toilets</b> , so , for once , no fucking paper machí€Œ© shite on me fretboard . Usually I get the number of pints wrong before we go on . 
138862	in the toilet	literally	! My hubby was sick on Saturday night , I found him at 1am lying <b>in</b> <b>the</b> <b>toilet</b> downstairs , bit of a tummy bug , however he always looses the ability to talk when ill ! ! 
141741	in the toilet	literally	Nor did the side by side comparison with the men 's help . NY Lock-In Paul Johnson , the former England International , now coaching in America , found himself locked <b>in</b> <b>the</b> <b>toilet</b> at Michael Jordan 's restaurant in the company of Peter Nicol and Lee Beachill . The latter pair were , it seems , plied with free 75-dollar bottles of wine as compensation which did neither of them any good . 
148605	in the toilet	literally	) But bad luck is following one of them : each time he is close to " do it " , hilarious events happen . Well , in fact the whole film is funny ; the grand mother who lost her short term memory and give 3 times a spoon of disgusting medicine to a little boy , or this absolutly cult scene with Danny and the sado-masochist-nymphomaniac <b>in</b> <b>the</b> <b>toilets</b> ... Hard to discribe , you will have to trust us , it IS a funny film ! ! 
149705	in the toilet	literally	Once , Karen was cleaning her teeth when , mid-rinse , she noticed that someone had washed their hair in the sink and not cleared the plug after . She threw up <b>in</b> <b>the</b> <b>toilet</b> . Karen has n't been to the pub since one night last winter . 
150455	in the toilet	literally	I am quite capable of self-fulfilment . George : Yes , that 's what it says <b>in</b> <b>the</b> <b>toilets</b> at work ! Henry : Over the last twenty-five years , I have read the news drunk , concussed , stoned , with a live stoat in my underpants and once , on regional television , with my trousers round my ankles and a Lithuanian prostitute under the news desk ! 
154508	in the toilet	literally	None of the ablutions work . The human waste piles up <b>in</b> <b>the</b> <b>toilets</b> on a daily basis . It gets flushed away only once a day . 
154894	in the toilet	literally	He had never really gone drinking as a student , and rarely spent money on alcohol . Once , when Andy had been living with him , he had found a bottle of vodka hidden <b>in</b> <b>the</b> <b>toilet</b> cistern . His first thought was , " That explains why it does n't flush properly . 
155868	in the toilet	literally	" We 've got some lovely people by and large . Judith got locked <b>in</b> <b>the</b> <b>toilet</b> for an hour or two one Saturday while it was tipping it down . One customer was in here minding the till while her husband was outside in the rain trying to get Judith out of the toilet . 
164665	in the toilet	literally	All the rest of our waste is compacted . Our plumbing is set up to be water-minimising ( example : the waterless urinals and funky fountains <b>in</b> <b>the</b> <b>toilets</b> ) . All our building materials ( including everything used in the big 1999 refurbishment ) are recycled or sustainably produced . 
26021	peach and cream	figuratively	If you do n't eat you will die . In which stage are you - Moody Monthly There are three stages of bible study : first , the cod liver oil stage , when you take it like medicine , because it is good for you ; second , the shredded wheat stage , dry , but nourishing ; third , the <b>peaches</b> <b>and</b> <b>cream</b> stage . Have you reached the third stage ? 
48102	peach and cream	figuratively	There is a note of realism in this word . Relationships are n't all <b>peaches</b> <b>and</b> <b>cream</b> . People can be difficult . 
56767	peach and cream	figuratively	They will be joined by third year students , who are given a free rein to take their ideas in any direction they choose . <b>Peaches</b> <b>and</b> <b>cream</b> Undergraduate Gemma Connolly used the unusual combination of ballet , punk and knitting as inspiration for her í‰äóìPeaches & Cream Collectioní‰äó . Other creations were stimulated by visions of straitjackets and padded cells , childhood summer holidays and facial expressions . 
66729	peach and cream	figuratively	You could just settle for enjoying where you are - at least you wo n't feel lost any more . DINING Greek food is not all <b>peaches</b> <b>and</b> <b>cream</b> . It can be healthy - plenty of salads and olive oil - but it can be rather boring too . 
69862	peach and cream	figuratively	In the evenings there were dancing classes , I did n't bother with that stuff , but my friend Joel Sheridan did . Joel was a plump lad with a very <b>peaches</b> <b>and</b> <b>cream</b> complexion . He often proudly carried a book under his arm - it was written by his older brother . 
72553	peach and cream	figuratively	How they disillusion the young talent that comes up . They make them believe that it 's all <b>peaches</b> <b>and</b> <b>cream</b> . They 'll all have big cars and big mansions and the whole bit . 
72846	peach and cream	figuratively	If your idea of Vietnamese is street food , you 'll find many surprises here , as the chef draws on French colonial traditions as well as his own native cuisine . The <b>peach</b> <b>and</b> <b>cream</b> dining room has a formal edge , with white table linens , Vietnamese photo montages and souvenirs , and a serene atmosphere . Amuse-bouches give you a hint of what 's to come . 
74170	peach and cream	figuratively	I 'm a revengeful devil , I know , but , as I remarked some way back , while on the subject of Joan and Chris Ormiston , even a V.O.S. has his self-respect to keep up . I do not think there was a single thing about Jones which did not annoy me - his sleek , auburn hair , which he kept so exquisitely curled - his " hard riding " whiskers - his horrified <b>peach</b> <b>and</b> <b>cream</b> complexion . I compared him with other Green Fusilier Captains I had known - Neave , Masterman . 
85462	peach and cream	figuratively	Sweet tobacco notes and some honey . With water it blossoms into a pretty young girl with a <b>peaches</b> <b>and</b> <b>cream</b> scent to her and a bright straightforward character . The flavour is sweet and surprisingly cool , like Glacier mints . 
89518	peach and cream	figuratively	Celebrities such as Victoria Beckham and the cast of Footballers ' Wives have not been kind to the reputation of fake tanning . The artificial , orange tint of their skin bears little resemblance to the sun-kissed glow that most <b>peaches</b> <b>and</b> <b>cream</b> complexions can take . Luckily , with new products and techniques launching all the time , there are now so many different shades and strengths that even the palest skin can benefit from a little well applied fake tan . 
102942	peach and cream	figuratively	Packed full of funky fashions , friendship and flirtation , the Bratz girls are the best at finding adventures that take them from high school , to exotic far-flung cities í‰äóñ and even to outer space . Life in the Bratz camp is n't always <b>peaches</b> <b>and</b> <b>cream</b> though , particularly where rival magazine editor Burdine Maxwell is concerned . Burdine has long blonde hair , only wears pink and considers herself fashion royalty . 
111334	peach and cream	figuratively	At first , I coded it in the category of ' beauty of mathematics ' . During the interview , we have the following conversation : I : You mentioned that mathematics is ' <b>peaches</b> <b>and</b> <b>cream</b> - solid basic sweet effect ' , could you please explain what you meant by this metaphor ? R544 : Yes , It seems to me that people that do n't like it , see it as a bit frightening and horrific , they got a hang up because in the past , they always failed to come out with a right answer . 
111335	peach and cream	figuratively	So , that aspect of it I do n't find any of it frightening . In the same way that if you use the metaphor like <b>peaches</b> <b>and</b> <b>cream</b> as oppose to hmm... something like fish and chips , you actually like fish and chips because it is better taste that you get with vinegar and stuff like that . You see the difference ? 
119027	peach and cream	figuratively	As far as a royal marriage held in a registry office for a previously married prince and a divorced woman , who played a pivotal part in the breakdown of the groom 's first marriage and one where neither of the groom 's parents ( nor monarch ) attended the actual royal wedding , it was miraculously a very fine affair . The bride , not noted for a <b>peaches</b> <b>and</b> <b>cream</b> complexion , looked beautiful . It was her day . 
128610	peach and cream	figuratively	Despatch on this item is currently 2 weeks . Close-up Price : í‰Œ£ 48.00 Colour Silver Black Gold Peaches and Cream handbag A vintage box handbag with a <b>peaches</b> <b>and</b> <b>cream</b> image and a diamante clasp , just big enough for your powder , lippy , mobile and money ! . 
131665	peach and cream	figuratively	Not only did I look better than I ever had before , I did n't even look like me . My face sparkled with the colors of <b>peaches</b> <b>and</b> <b>cream</b> , my eyes were dark and dramatic , my hair was nothing but perfection in light spiral curls adorning my head and framing my face . Whatever else she was saying as she worked on me , one thing was obvious she was a master . 
133782	peach and cream	figuratively	" this comment from him spoke volumes . Coming from him it was a high compliment , and he dubbed her princess , her daintiness and blond fuzz and <b>peaches</b> <b>and</b> <b>cream</b> face making her look like a tiny princess in a fairy tale . When we arrived home I saw Mr. Kerr ( the gentleman who had dug out our cars after the storm ) coming up our street in his backhoe , I proudly held up the removable car seat so he could see our beautiful daughter . 
147191	peach and cream	figuratively	Loan lenders are offering student loans even to people with bad credit . However , it is not all <b>peaches</b> <b>and</b> <b>cream</b> . Bad credit student loans come with an obvious detriment - higher rate of interest . 
147192	peach and cream	figuratively	Conjointly , two significant terms relating to bad credit student loans are forbearance and deferment which will facilitate delay of repayment if you do n't have money immediately after you have left the school . However , as I already said it is not all <b>peaches</b> <b>and</b> <b>cream</b> . It is not very easy to get a bad credit student loan . 
150764	peach and cream	figuratively	O'Bannon plays the careless cad with such ease that nothing bothers him . As a role for Wilson , it 's <b>peaches</b> <b>and</b> <b>cream</b> . He does n't have to do anything except open those lips and smile that smile . 
51781	peach and cream	literally	Following the order to surrender the troops used up what stores were left ; the camp had been an R.O.A.C. establishment and so was relatively well supplied with food , clothing and medical supplies . Dick clearly remembers feasting on tinned <b>peaches</b> <b>and</b> <b>cream</b> . The Battalion Medical Officer stocked up on medical supplies and Holohan , the Battalion Quartermaster , secured supplies of anything and everything that might be needed during the coming months . 
56862	peach and cream	literally	A must for all Patchouli fans ! Peach : The incomparable sweet , tart , fruity scent of peach combined with creamy , luscious , rich bottom notes -- not just <b>peaches</b> <b>and</b> <b>cream</b> , but peaches , cream , and magic ! Peach Mist : A new one and not tested yet so cannot give an opinion . 
61436	peach and cream	literally	Merchant Navy background. more info 1973 Officer Instructor Mr Burgess Clerk Mrs Stranks 1954 - 1964 Cook Mrs Dixon ' Little Cook ' . Was quite easy going and was known on occasions to give the two boys working in the Galley <b>peaches</b> <b>and</b> <b>cream</b> ( usually reserved for the officers ) . When she left she became the personal cook for the Constable of Dover Castle . 
108289	peach and cream	literally	WINES OF THE MONTH Two terrific Vasse Felix Western Australians From Majestic. í‰Œ£ 9.99 each í€äóADAMS ROADí€äó¢ CHARDONNAY 2004 A lovely wine with more complexity than most Oz Chardonnays . <b>Peaches</b> <b>and</b> <b>cream</b> flavours dominate with a soft finish . í€äóADAMS ROADí€äó¢ CABERNET MERLOT 2003 This vineyard is in the Northern part of the Margaret River region í€Œ the warmest , and í€äó¢03 was a warm vintage . 
145559	peach and cream	literally	We never eat peaches because they ferment , And a peach will ferment at the least little dent . Oh , can you imagine a sight more obscene , Than a man getting tipsy on <b>peaches</b> <b>and</b> <b>cream</b> ! Beware of plum pudding , the kind that they light . 
145951	peach and cream	literally	Stephanotis , famed for its inclusion in bridal bouquets is a popular climbing plant with a powerful but pleasant scent . Gardenia has another powerful scent , which reminds me of <b>peaches</b> <b>and</b> <b>cream</b> ! How about a touch of the Mediterranean - with a citrus plant ? 
151701	peach and cream	literally	My first selection came from this winery . White wines Villa Wolf , Pinot Gris 12.5 % 2002 , Pfalz Germany Sainsburys í‰Œ£ 4.99 An unusual grape for Germany produces a most pleasant wine that has an inviting nose , and an off dry <b>peaches</b> <b>and</b> <b>cream</b> taste that guarantees a hit with friends . Try this out í‰äóÖblind ' on your wine buff neighbour . 
154829	peach and cream	literally	This wine typifies the high quality of the region , and shows benefit from a little extra bottle age . Exotic aromas to the nose lead into a palate of pure poached pear intertwined with <b>peaches</b> <b>and</b> <b>cream</b> . Open this when some special friends come around . 
30	run out of steam	figuratively	It 's now well over a year since Sabre Man first appeared , and the concept is wearing a little thin . Nightshade looks a lot different from Knight Lore and Alien 8 , but not so different as to stifle doubts that Ultimate may be <b>running out of steam</b> . Or dare we hope for something really special this side of Christmas ?
12559	run out of steam	figuratively	Learners enrol at a time in their lives that provides both an impetus for learning ( perhaps from children , work or community life ) , and an opportunity ( time , support , barriers overcome ) . Learners stay engaged for as long as suits them ; they may leave when they feel they have ' enough ' skills , when their personal circumstances change , when the barriers to learning are greater than the supports , or when they just <b>run out of steam</b> for a while . They may come back months or years later .
51445	run out of steam	figuratively	The car pulls like a train even at 90-100mph I can still drop it down to 4th and just toe it ! I find that I back off before the car <b>runs out of steam</b> . The SSK2 has got to be a modification even Rover should consider from the factory it makes the car a " Real sports cars " and a " Drivers machine " not a hairdressers car as so many people like to refer to them as .
58157	run out of steam	literally	65462 also worked on the Norwich , Yarmouth South Town and East Suffolk lines , with occasional sessions as the Halesworth milk-bay pilot . The loco had its first encounter with the M&GNJRS on the 21st May , 1960 when it assisted a railtour ( from Norwich City to Norwich Thorpe via Sheringham , the Waveney Valley line and Lowestoft ) after the train 's loco , J15 65469 <b>ran out of steam</b> at Beccles . To avoid lost time ( the train was already running late ) 65462 was commandeered from the yard to help the ailing J15.The two locos , coupled tender to tender , then hauled the special as far as Lowestoft Central .
90115	run out of steam	literally	News from the Line , 24th September 1997 ( Taken from September 1997 Talyllyn News . ) Traffic News The railway has operated well through the summer , the only major problem being on 6th July when No. 1 " Talyllyn " failed at Abergynolwyn , having <b>run out of steam</b> , and was rescued by diesel No. 9 " Alf " . This was the first occasion for 4 years when a train had to be retrieved by another loco .
4805	see a man	literally	How often do we defend our faith and yet fail to show compassion to others . Turn if you will to ( Job 31 : 16-22 ) for here we <b>see</b> <b>a</b> <b>man</b> who had not only great faith , but he had also great works . Here is the reality of real faith . 
5364	see a man	literally	` Heigho ! Have you <b>seen</b> <b>a</b> <b>man</b> from our neighbourhood , going this way on his journey ? He was a great man in our country . 
5844	see a man	literally	George and Kramer go between JFK and La Guardia to pick them up . When they settle on an airport George meets a convict and Kramer <b>sees</b> <b>a</b> <b>man</b> who owes him $ 240 from years ago . The Pick Elaine is humiliated when she accidentally shows a bit too much on her Christmas card photo , that she has sent out to everyone she knows . 
6626	see a man	literally	If he was vulnerable he was mortal , and if we could wound him we could kill him . Never have I <b>seen</b> <b>a</b> <b>man</b> run as Holmes ran that night . I am reckoned fleet of foot , but he outpaced me as much as I outpaced the little professional . 
11222	see a man	literally	A candle that burns roses , or red wick-heads , indicates prosperity and a letter . If a woman on New Year 's Morning <b>sees</b> <b>a</b> <b>man</b> first , she will have prosperity all through the ensuing year . It is fortunate for a dark-haired person to be the first to cross your threshold on New Year 's Day . 
12102	see a man	literally	The barber finished his job and the client went out of the shop . Just after he left the barbershop , he <b>saw</b> <b>a</b> <b>man</b> in the street with a long hair and beard ( it seems that it had been a long time since he had his cut and he looked so untidy ) . Then the client again entered the barbershop and he said to the barber : " know what ? 
13900	see a man	literally	Send them to : stories@soon.org.uk Breakdown by James Starkie The rhythmic clicking of a keyboard broke the silence of the eighteenth century hallway . The receptionist looked up to <b>see</b> <b>a</b> <b>man</b> with rough hair and an unshaven face standing over her . " I 'm here to see Mr Howard , " the man scowled . 
17585	see a man	literally	To settle the dispute they all went to the tree . They <b>saw</b> <b>a</b> <b>man</b> sitting under it . On being asked , he replied : ' Yes , I live under this tree and I know the animal very well . 
19013	see a man	literally	So this was a place where people came to seek God 's healing . Jesus comes and he <b>sees</b> <b>a</b> <b>man</b> who has been a cripple there for 38 years . He 's seen others healed , but he has never been healed himself . 
23148	see a man	literally	He tore up one of his wife 's photographs in my presence í‰äóî tore it up furiously in a tempest of passion. í‰äóÖI never wish to see her damned face again , ' he shrieked.í‰äó í‰äóìAnything more , Watson?í‰äó í‰äóìYes , one thing which struck me more than anything else . I had driven to the Blackheath Station and had caught my train there when , just as it was starting , I <b>saw</b> <b>a</b> <b>man</b> dart into the carriage next to my own . You know that I have a quick eye for faces , Holmes . 
26534	see a man	literally	I then p.228 retreated to a cellar on one side of the court-yard . There , in the darkness , I <b>saw</b> <b>a</b> <b>man</b> , W&#322;adys&#322;aw Tymitiski . He told me that the Germans had taken him from No 19 , Marszalkowska Street , and had brought him to Anc 's shop from Oleander Street and there ordered him to jump on to the burning staircase . 
27150	see a man	literally	I turned my lantern down the long , straight passage , and there was the fat man , running like the wind , with a smear of blood across his face , and close at his heels , bounding like a tiger , the great black-bearded Sikh , with a knife flashing in his hand . I have never <b>seen</b> <b>a</b> <b>man</b> run so fast as that little merchant . He was gaining on the Sikh , and I could see that if he once passed me and got to the open air he would save himself yet . 
27370	see a man	literally	As a result of this , Inspector Fowler is accused of racism . Patricia thinks she 's <b>seen</b> <b>a</b> <b>man</b> beating up a woman . She and Fowler go to investigate and find DI Grim in a dress , being initiated into the Todgers . 
30582	see a man	literally	But more than this , turning it around , the Lord believed in Ananias ! This is evidenced by the words of Jesus before the event í‰äóñ Saul has <b>seen</b> <b>a</b> <b>man</b> named Ananias laying hands on him to receive his sight . So the whole thing came together , Saul was blessed and I 'm sure that Ananias was blessed too by what the Lord had chosen to do through him . 
34266	see a man	literally	" And he would ask women for approval on everything , from his songs to his appearance . Quincy Jones had a good take on this , he said : " That Ray Charles , he always had the best of everything , he was always in the most beautiful suits ' because he 'd ask the women what they would want to <b>see</b> <b>a</b> <b>man</b> wearing . " It was very interesting to have those things explained to me , the women and the drugs , in his words . 
35528	see a man	literally	I forthwith started up and ran down , followed by several other guests , who came rushing out of their chambers round the corridor . At the gate we <b>saw</b> <b>a</b> <b>man</b> on the ground and the hound trying to strangle him . It was with the greatest difficulty , and chiefly through the intervention of the master of the dog , who happened to be present , that the animal could be made to quit his hold . 
36597	see a man	literally	And what was her method of evangelism ? It was very simple - verse 29 : " Come , <b>see</b> <b>a</b> <b>man</b> . " Her goal was to introduce them to Jesus . 
41548	see a man	literally	I rose at just past 4 & was employed in the office arranging some small matters before ye craft came , when I heard a man 's voice calling . I open 'd one of the shutters & <b>saw</b> <b>a</b> <b>man</b> standing about íƒäóì way between my window & the lower gate , and he pointed with his hand and said í‰äóìHere 's a Trow comingí‰äó . I had no doubt in my own mind but that the Trow was very near , & as the wind blew hard & right into the pound it was highly necessary the gates should be opened & ready . 
42061	see a man	literally	Under Jarmusch 's expert eye , Murray and a high quality supporting cast take what could have been an episodic , formulaic road movie and shoot it through with genuine human experience . From the beginning , Murray 's edgy stillness betrays Don 's sense of discomfort , and throughout we <b>see</b> <b>a</b> <b>man</b> peeling away the layers of his past and discovering where his past choices have taken him . The humour is wry and bittersweet , rather than laugh out loud funny . 
42674	see a man	literally	Next day John is sent to the Senator 's latest speech which is taking place outdoors at the South Beach Memorial Hospital . As the speech gets underway John <b>sees</b> <b>a</b> <b>man</b> who could fit the profile wearing a hooded top and starts to move through the crowd towards him . Meanwhile , another man is moving forwards through the crowd and on reaching the front puts his hand into his jacket . 
46367	see a man	literally	A clicking sound drew Zorba 's attention . He turned in time to <b>see</b> <b>a</b> <b>man</b> hobble by on crutches , a banjo slung across his back . Suddenly the Cretan remembered the TV crew visiting in the afternoon . 
48203	see a man	literally	A fascinated curiosity compelled Lester to turn his head towards the fugitives ; the cab had started at hot pace in the direction of the station . The next moment Lester was running , running faster than any of those present had ever <b>seen</b> <b>a</b> <b>man</b> run , and í‰äóî he was not running away . For that stray fraction of his life some unwonted impulse beset him , some hint of the stock he came from , and he ran unflinchingly towards danger . 
50366	see a man	literally	Arthur Lubin later confessed that it had all been a stunt and there was no truth to it at all , but he also admitted that Lugosi 's death scene unnerved him . " I do n't think I ever <b>saw</b> <b>a</b> <b>man</b> die so horribly on the screen . I nearly died watching him ! 
57724	see a man	literally	A few yards off he stopped under a lamp-post and laughed in the hearty , noiseless fashion which was peculiar to him . " When you <b>see</b> <b>a</b> <b>man</b> with whiskers of that cut and the ' Pink ' un ' protruding out of his pocket , you can always draw him by a bet , " said he . " I daresay that if I had put 100 pounds down in front of him , that man would not have given me such complete information as was drawn from him by the idea that he was doing me on a wager . 
58693	see a man	literally	[ Date published : 20/07/2006 ] Police in Crawley are appealing for witnesses to a burglary that happened at 2.30pm on Saturday , July 15 , 2006 at Nymans Courts , Furnace Green , Crawley . The occuptants of the address returned home to <b>see</b> <b>a</b> <b>man</b> leaving their back garden by climbing over the fence . Police were called immediately and whilst waiting for the police arrival , the victim saw a man returning close by to collect a bike . 
58806	see a man	literally	Swami : " Austerities are of many kinds . Once I <b>saw</b> <b>a</b> <b>man</b> who had taken a vow not to sit or lie down for twelve years . When I met him only five or six months remained of this period . 
61433	see a man	literally	I think also that you are right , they are uniformed , every time I see them they are your average dreadlock having , " i just dont care " dressed , generally it has to be said , studenty types . You all know , even though its a generalisation , you have never ever <b>seen</b> <b>a</b> <b>man</b> and a woman in suit handing out info on animal testing . I think the cause does itself little good in segregating away a large population of socieity who might like to help . 
66991	see a man	literally	Mulder looks a bit undecided. ) SCENE 19 ( Later , Danielle Manley is lying in her bed . She <b>sees</b> <b>a</b> <b>man</b> standing in the bedroom doorway. ) DANIELLE MANLEY : Oh , my God . No .. . 
69554	see a man	literally	The body was discovered at 7.10pm that evening . Mrs Pullen described <b>seeing</b> <b>a</b> <b>man</b> aged " about 35 " walking from near where the body was found . Bath police worked their way through the local suspects , and on July 31 interviewed Straffen . 
72313	see a man	literally	If you came to this page directly , you might also enjoy visiting some of my other tools for learning and using Chinese . Please visit my guestbook if you have comments or questions about this tool. _________________ Harmost is an Ancient Greek word that means military governor " I thought I was hard done by , when I had no shoes , until I <b>saw</b> <b>a</b> <b>man</b> who had no feet " 
73962	see a man	literally	" Chaitanyadeva set out on a pilgrimage to southern India . One day he <b>saw</b> <b>a</b> <b>man</b> reading the Gita . Another man , seated at a distance , was listening and weeping . 
75169	see a man	literally	This is a shocking state of things ; and in spite of everything that the Jenkinsons and the Scots can do , this state of things must be changed . At Sarr , or a little way further back , I <b>saw</b> <b>a</b> <b>man</b> who had just begun to reap a field of canary seed . The plants were too far advanced to be cut in order to be bleached for the making of plat ; but I got the reaper to select me a few green stalks that grew near a bush that stood on the outside of the piece . 
75218	see a man	literally	From that time on they ate food grown in Canaan . 13 While Joshua was near Jericho , he suddenly <b>saw</b> <b>a</b> <b>man</b> standing in front of him , holding a sword . Joshua went up to him and asked , " Are you one of our soldiers , or an enemy ? 
76036	see a man	literally	He could n't speak to me for 20 minutes , he was crying and sobbing . " Denying these were the symptoms of a hungover Evans , he said : " I could <b>see</b> <b>a</b> <b>man</b> I had known since 1990 was jelly , he was crying and could n't coherently stand , not because he was drunk . " " The reason Chris went away , as he has said , is that he was in shock , in a mess , he did n't know how to face the team and he could n't go into the building , " he said . 
78794	see a man	literally	Difford rarely sang , but wrote most of the band 's sublime and quirky lyrics . Diffordí€Œ¢í‰ä‰åí‰ä‹¢s pedigree as a songwriter had never been in doubt and as so the Glastonbury Acoustic Tent faithful turned out in droves today to <b>see</b> <b>a</b> <b>man</b> who has been dubbed by many the Lennon and McCartney of their generation , along with Glen Tilbrook . As a solo performer , Difford has made a departure from the idiosyncratic sound of Squeeze . 
79292	see a man	literally	, also written by Mandy Knight and Kenny McClymont , is ablack comedy about fragile relationships between two fading Seventies sitcom stars backstage at a dingy rep theatre . While The Parting Glass <b>sees</b> <b>a</b> <b>man</b> look back at his life at an Irish wake . Review . 
79484	see a man	literally	At 9.45 , we ( two ladies , a man who was on the dive with me yesterday , two dive guides and the boatman ) were in the boat and ready to go . I looked up and <b>saw</b> <b>a</b> <b>man</b> jumping out of his car , struggling with cylinder and weight belt , as he ran to catch us before we left . I called out , " Calm down - we do n't mind waiting ! 
79567	see a man	literally	Miss Mayes told the court she saw Mr George at 7am on the day of the murder , standing in the rain in Gowan Avenue , Fulham , a few yards from the spot where the 37-year-old was shot . She was on her way to a Tube station when she noticed a car double-parked almost directly opposite the scene of the crime and <b>saw</b> <b>a</b> <b>man</b> standing alongside . " When I first saw him , he was just standing there , looking at the houses on his left , " she said . 
79568	see a man	literally	He looked Mediterranean , with black , shoulder-length hair and was wearing a black suit and a white open-neck shirt . Another neighbour , Terry Belinda Normanton , told the jury that she had <b>seen</b> <b>a</b> <b>man</b> in the same area looking towards Miss Dando 's home from the road three hours later , as she made her way to an embroidery class . She picked out a picture of Mr George during a photo ID parade . 
80905	see a man	literally	I saw a beautiful sight a few moments ago when an entire family made their way to the altar . I <b>see</b> <b>a</b> <b>man</b> who drove all the way from New Jersey at the altar . All is well . 
89751	see a man	literally	Again the offender has been described as a white male in dark clothing . Police are urging anyone else who has <b>seen</b> <b>a</b> <b>man</b> acting suspiciously yesterday to come forward , all information will be treated in confidence . The 22-year-old man was arrested at just after midnight and remains in custody and will be questioned later by officers . 
94095	see a man	literally	Conditions eventually dried and we managed a speedy descent into Cefalí€Œ_ . On day two a circular tour took us along the coast to Castelbuono Station where we <b>saw</b> <b>a</b> <b>man</b> screech his car to a halt , leap out onto the railway tracks and pick up a dead seagull , then carry it back to his car . Hmm . 
94319	see a man	literally	It is also unique to Japan . Sumo wrestlers enjoy a very high regard in There are many other styles of martial arts that involve grappling and throws this is just a small selection Sambo Sambo is a form of wrestling that employs strikes , takedowns , throws , joint-locks and teaches defence against weapons. _________________ Harmost is an Ancient Greek word that means military governor " I thought I was hard done by , when I had no shoes , until I <b>saw</b> <b>a</b> <b>man</b> who had no feet " 
96882	see a man	literally	Whither can he lead him but to where he is himself ? What principles can he instil save those which govern his own mind , and form the basis of his own character?Well , if I <b>see</b> <b>a</b> <b>man</b> governed by worldly principles í‰äóñ if I see plainly , from his whole course and character , that he is an unconverted persons shall I commit to him the training or instruction of my children , or the formation of their characters ? It would be the height of folly and inconsistency so to do . 
100665	see a man	literally	Although John is believed to have stayed frequently at Floors , he was apparently not invited to remain on this occasion . Fleursí‰äóîI envy not that pretty place , Although I am one of the race ; But from my heart I wish I 'd <b>seen</b> <b>A</b> <b>man</b> live there from Little Dean And why so wish ? Because , some say , He 'd not have sent me empty away . 
105920	see a man	literally	" , Troilus and Cressida ( Act 3 sc.2 ) Goneril : " By day and night he wrongs me .... prepare for dinner . " ( omit Oswald 's lines ) , King Lear ( Act 1 sc.3 ) Imogen : " I <b>see</b> <b>a</b> <b>man</b> 's life is a tedious one .... such a foe , good heavens ! " , Cymbeline ( Act 3 sc.6 ) 
106687	see a man	literally	As a result I ended up in hospital . One day when I was expecting my parents to come and visit me , I <b>saw</b> <b>a</b> <b>man</b> who was looking for somebody and he asked me if I knew this person . I did not . 
107217	see a man	literally	When the service was over I stepped down from the railings . I <b>saw</b> <b>a</b> <b>man</b> watching me . " Hello , " he said . 
114657	see a man	literally	) . ( 1 ) Robert <b>saw</b> <b>a</b> <b>man</b> in a suit and a woman who were walking down the street . ( 2 ) Robert saw a man in a suit and a woman who was walking down the street . 
117609	see a man	literally	" Banda , a midwife , said in her 10 years at the clinic she had seen women bringing their husbands on wheelbarrows , bicycles and even on their backs , like babies . But she has yet to <b>see</b> <b>a</b> <b>man</b> even offer the support of his arm and bring his wife for treatment . A group of women attending antenatal classes in Petauke frankly explained that if they were HIV-positive , their husbands would be unwilling to spend money on lifelong ARV treatment for them . 
118436	see a man	literally	This he attended until he was 14 , in 1893 . " When he was about 12 years old and still at school he <b>saw</b> <b>a</b> <b>man</b> painting in his garden . He was curious to see what the man was doing and found he was painting a picture of his street . 
119019	see a man	literally	An alternative version of Lees ' omnibus journey appears in Prince Jack ( 1978 ) , written by American ex-detective Frank Spiering . In his version we have Lees once again aboard an omnibus when he <b>saw</b> <b>a</b> <b>man</b> enter a house in the fashionable Grosvenor Square area . Lees quietly got off the omnibus and found a constable . 
122155	see a man	literally	_________________ Hope for the best , expect the worst , and take what comes . Back to top Shipbuilder Joined : 11 Jul 2006 Posts : 61 Location : Northern Ireland Posted : Thu Aug 10 , 2006 11:22 pm Post subject : Mong Knob-Head wrote : Of more relevance to conditions here in the UK is the definition of Protestant Work Ethic : one which places a high moral value on ( hard ) work And yet i 've never <b>seen</b> <b>a</b> <b>man</b> of the cloth even break into a sweat . . 
124491	see a man	literally	Mr. George McCarthy his wife Helen and their daughter Terri were waiting at traffic lights on Baths Road and heard screams for help . They <b>saw</b> <b>a</b> <b>man</b> running away with the bag and gave chase , apprehending and detaining him in a nearby street until the police arrived . The handbag was recovered from the offender and the knife used was found discarded close to the scene . 
127090	see a man	literally	Tape Two - starring Patrick Troughton as the Second Doctor THE FACELESS ONES ( Two surviving episodes : 1 and 3 ) The TARDIS lands at Gatwick airport in 1966 , and the Doctor and Jamie are separated from Ben and Polly . Polly <b>sees</b> <b>a</b> <b>man</b> murdered , but she goes missing soon after . What is the mystery behind Chameleon Tours ? 
130245	see a man	literally	I was just surprised by the sound of the letterbox without the augury of a shadow against the window or the sight of some bag-carrier slouching north . Instead , I <b>saw</b> <b>a</b> <b>man</b> of Asian origin driving off in a people carrier , which was an unusual choice of vehicle for random flyer distribution . So I checked the mat to find an unstamped envelope addressed to my full name and address . 
133154	see a man	literally	This story was related to Price by one of the unmarried sisters , Ethel Bull , who seems to have been the sole source for most of the ghost stories about Borley Rectory . It seems to concern two incidents , one in which he saw the famous coach , and , in the other , he <b>saw</b> <b>a</b> <b>man</b> in the garden . He could only see the man 's legs as the rest of the man 's figure was hidden by the fruit trees . 
134593	see a man	literally	I never got a chance to apologize . I had him pegged as some spoiled rich kid that needed his ears pinned back , but I never <b>saw</b> <b>a</b> <b>man</b> work like him . On top of that , he saved the whole ship ! 
134736	see a man	literally	The title track is obvious but the song which evokes Barrett is Shine on You Crazy Diamond . Rick Wright describes how he <b>saw</b> <b>a</b> <b>man</b> he did not recognise in the studio production room . Someone else said that it was Syd . 
135182	see a man	literally	I could not answer him at all for a while , I was laughing so , but , at last , between my peals I managed to jerk out : " It is n't my shirt í‰äóî it 's yours ! " I never <b>saw</b> <b>a</b> <b>man</b> 's face change from lively to severe so suddenly in all my life before . " What ! 
135317	see a man	literally	So how can I do this originally ? In the car on the way to their place , we passed through Bisley and pretty soon <b>saw</b> <b>a</b> <b>man</b> weeing by the side of the road , so I dubbed it Pissley and that was my pun limit reached for the day . Some days are higher than others , though . 
136274	see a man	literally	She later identified Barry George . Another woman also <b>saw</b> <b>a</b> <b>man</b> standing opposite Miss Dando 's home at about 9.50am . She gave a " qualified " identification of George . 
140674	see a man	literally	He touched the bed and felt some sort of electrical current . Frightened he ran out of the room , he then ran down a ramp to a nearby building , he heard a noise and <b>saw</b> <b>a</b> <b>man</b> wearing a blue tight fitting outfit behind him . He attempted to run but then saw a person to the right of him that looked like his deceased grandmother . 
141854	see a man	literally	He prayed and God showed him what those dreams meant . In one dream he even <b>saw</b> <b>a</b> <b>man</b> from heaven , equal with God . Put down the other symbol of praying hands and also the flat white outline of Christ This man was very special and the kingdoms were all given to this man . 
142003	see a man	literally	In other New Testament texts a specific interpretation of the Old Testament is implied , which was no doubt obvious to the original readers , but is not necessarily so obvious to a modern pew-sitter . For instance : ' As Jesus was walking along , he <b>saw</b> <b>a</b> <b>man</b> who had been born blind . His disciples asked him , " Teacher , whose sin caused him to be born blind ? 
142596	see a man	literally	A Christian has new motives . If I <b>see</b> <b>a</b> <b>man</b> walking through the world without things here affecting him ; I say , " He is either mad - or risen with Christ . " Alas ! 
143010	see a man	literally	Sadly , they did n't have " Bare Lady Day " so I got one called ' The Bare Bitch Project ' instead . It was good but my erection failed after I <b>saw</b> <b>a</b> <b>man</b> in the film who looked a bit like Tom Selleck . I hate him , he 's a big bender . 
145458	see a man	literally	As ever , sinuous trip-hop melds with a hundred influences to create something quite unique . Ever <b>see</b> <b>a</b> <b>man</b> play a space-hopper like a banjo ? A decadent pleasure . 
146273	see a man	literally	I 'll be back in a minute , Whitmore . " He ran down the stairs , and as he got near the parlor door , which stood open , he <b>saw</b> <b>a</b> <b>man</b> sitting on a couch with what seemed to be some framed water-color pictures on the floor near his feet . " Ah , ha ! 
154836	see a man	literally	People do get mixed up ! My boss told me last Monday that I had to go wandering up and down the main road to see if I could <b>see</b> <b>a</b> <b>man</b> who might look like he wants to get to our language school . His words were " Remember . 
159239	see a man	literally	Who I wonder had the idea of broadcasting this tawdry pornographic event ? Roy Hattersley , The Daily Mail Inviting viewers to <b>see</b> <b>a</b> <b>man</b> risk his life is a moment of landmark depravity on television . Mark Lawson , The Guardian Shoots you , sir ! 
882	see the light	figuratively	Nor is Hall the only patriarch redeemed in this dumb movie . Worse still is the US viceí‰äóñpresident , who ignores warnings of global cataclysm only finally to <b>see</b> <b>the</b> <b>light</b> . Even allowing that he is not the most subtle of filmí‰äóñmakers , it seems extraordinary that Emmerich should consider himself to be mounting a critique of the American government 's environmental policies , yet allow redemption to this mediocre and politically compromised figure . 
2205	see the light	figuratively	But the Frankfurter Allgemeine Zeitung , Germany 's serious and respected newspaper . I 'm sure there is not a newspaper in Europe that carries as much authority and weight as the Frankfurter Allgeminer Zeitung , has finally <b>seen</b> <b>the</b> <b>light</b> of day and this is why my one year estimate us very close to the mark . The Frankfurter Allgeminer Zeitung , for the last three or four months , has begun publishing editorials coming down in favor of the Revisionists . 
4730	see the light	figuratively	We had entered experimentally into a discernment of the essential frontier between darkness and light and from that moment we were potential bearers of the light . Such a Christian will be regarded as narrow and bigoted but he has <b>seen</b> <b>the</b> <b>light</b> and now , like a lighthouse , will begin to be a bearer of light . For him , Jesus is the Light of the world , and he has no light on the darkness of the world save Jesus . 
11497	see the light	figuratively	2 is a continuation of our programme to release the best of the label 's output . This compilation focuses on the blues and R&B repertoire in the Ebb vault , with unreleased sides <b>seeing</b> <b>the</b> <b>light</b> of day for the first time here . Lee started by buying masters from the defunct Cash Records . 
19165	see the light	figuratively	A number of newspapers predicted a public outcry but there were only a few complaints from viewers . Of course , like most people , there are quite a few videos and video games which I wish had never <b>seen</b> <b>the</b> <b>light</b> of day , but we need to have good reason to censor or ban material . We should remember that in the UK , video is far more stringently regulated than anywhere else in Europe . 
20516	see the light	figuratively	It would be too much to ask for them to do Joy and Strength Through Joy , as they hardly class as punk . A box set would be brilliant - there are loads of tracks in the archives that have never <b>seen</b> <b>the</b> <b>light</b> of day - does Jobbo have these somewhere or do virgin ? I know quite a few were recorded for John Peel sessions , but the BBC have n't got round to releasing them either . 
21280	see the light	figuratively	DJ Format ' The Hit Song ' Remix . And a ton of product that has n't <b>seen</b> <b>the</b> <b>light</b> of day . About to release some solo stuff from my DJ Fase solo Album . 
21812	see the light	figuratively	Romantic , almost . Now , after having actually been a freelancer for a while , the scales have been lifted from my eyes and I have <b>seen</b> <b>the</b> <b>light</b> . You pay for being able to manipulate your time . 
21816	see the light	figuratively	This blog has restrengthened a flame that was starting to flutter . And I am beginning to <b>see</b> <b>the</b> <b>light</b> at the end of a dark , dark tunnel . It has been an arduous year beyond the reading of 700 page long fantasies . 
23566	see the light	figuratively	Internet usage censored and miss and desperately needs fully functional multimedia . Forget Cineroma , it 's been on the way for several years now so its not going to <b>see</b> <b>the</b> <b>light</b> of day . All those devices that talk to Apple/PC 's such as cameras , PDA 's , phones etc. The interconnectivity is increasing but not with RiscOS . 
26207	see the light	figuratively	28/04/01 Mike Smith - michael-at-smith244.fsnet.co.uk Port Talbot , South Wales , U.K. Hoping to get my first jag very soon ( 3.6 ) . Always been a land rover / range rover nut - but has <b>seen</b> <b>the</b> <b>light</b> 28/04/01 Hans Heitmann - heitmann-at-intouch.com Cairo - Egypt It was difficult to get into the website , but finally I made it . Very good idea ! 
29871	see the light	figuratively	Sites that had ranked in the top 10 for years were being mercilessly tossed around . Other sites that had n't gotten any decent rank in the past were beginning to <b>see</b> <b>the</b> <b>light</b> . And still others did n't notice any changes . 
31046	see the light	figuratively	I wonder if sometimes God allows us to see the depths of imperfection in order to point us to his perfection . The darker it gets , the easier it becomes to <b>see</b> <b>the</b> <b>light</b> . Prayer idea Perhaps you would like to spend some time telling God how you feel , or asking God : " Why ? 
34618	see the light	figuratively	With this issue , Number 8 , our magazine celebrates its twentieth anniversary . We have come a long way since our first little effort <b>saw</b> <b>the</b> <b>light</b> of day back in 1959 . It and its two immediate successors , published in 1962 and 1965 respectively , under the editorship of Mr George MacDonald Banks contributed much to carry the initial fiery crosses with the gospel of clan Donald to its members in the far-flung corners of the world . 
34966	see the light	figuratively	I 'm an Essex girl and I 'm proud of it Josie Stephenson lets off steam and backs the Essex girl tradition WHAT EVER HAPPENED TO... whatshername ? Yvette Barnett finds out what happened to those schoolchums who never kept in touch ... At last I began to <b>see</b> <b>the</b> <b>light</b> Caramel to strawberry - Bristol reporter Megan has picked and mixed with the best of them Christmas - you gotta love it People say Christmas is for children . Bah ! 
36525	see the light	figuratively	' Addicted To Love ' by Robert Palmer almost became more famous for it 's girlband video than the song itself . Now over fifteen years on the single gets to <b>see</b> <b>the</b> <b>light</b> of day again thanks to the work of dance act Shake B4 Use . Now some people might question as to what Robert thinks of this new working of his classic song . 
41552	see the light	figuratively	I will see Kougaiji-sama smile at me . I will <b>see</b> <b>the</b> <b>light</b> in his eyes , and I will be happy . 
45592	see the light	figuratively	I guess this is just the beginning of his misfortune for ever getting himself involved in an indecent action . My good brother , I want you to note that I am solidly with you as I also <b>see</b> <b>the</b> <b>light</b> , that we can achieve whatever we want to working as a team , but I want you to take things straight Mr Windy , as you keep turning on your words . This is not a sign of straightforwardness , I guess you know . 
46734	see the light	figuratively	Emma Wilbraham , Jeff Porter and Julie Pettman masterminded production . Without them this revision would never have <b>seen</b> <b>the</b> <b>light</b> of day . Thanks are also extended to the original contributors Dr A Bulman , B Carroll , Prof R Cartwright , Dr C Dow , Dr R Fairhurst , Dr J Porter , Dr J Sergeant and Prof D Warrell . 
49488	see the light	figuratively	( We have a wierd sense of humour in our family so if you offended by this joke , do n't be for me because I just simply laughed ) . But as for <b>seeing</b> <b>the</b> <b>light</b> - nope ! absolutely nothing . 
50488	see the light	figuratively	About the author Kevin Edwards is Professor of Palaeoecology in the Department of Archaeology and Prehistory , University of Sheffield . He published his first four papers while a research student and subsequently regrets that one of them <b>saw</b> <b>the</b> <b>light</b> of day . He spent 10 years as co-editor of Journal of Archaeological Science and remains on the editorial board of that journal and of the Transactions of the Institute of British Geographers . 
55526	see the light	figuratively	All eternity singing songs í‰äóñ I knew I ought to be thrilled about it , but it really did n't seem like my idea of heaven . Now I 've <b>seen</b> <b>the</b> <b>light</b> . Christians wo n't be spending all eternity in heaven , but in the new heavens and the new earth í‰äóñ the new creation . 
57126	see the light	figuratively	It was the failure of the Conservative Government of the 1970s honestly to tell the people of this country what was at stake that bedevils our relationship with Europe to this day . I did not <b>see</b> <b>the</b> <b>light</b> for many years after I should have done , because it was there to see for those who were prepared to do so . I can do no better than to cite the example of a letter sent by the then Lord Chancellor on 14 December 1960 to my right hon . 
57686	see the light	figuratively	The only other top forty new entry went to Lemon Jelly 's ' Spacewalk ' which entered at number 36 . It 's been over ten years in the making and at times it looked a far away dream but finally the Manic Street Preachers ' Greatest Hits ' package will <b>see</b> <b>the</b> <b>light</b> of day this Christmas . The new single taken from it is entitled ' There By The Grace Of God ' and will be hoping to beat the number eight placing of ' Found That Soul ' , the highest placed hit from their last album . 
68687	see the light	figuratively	He did n't look injured but must have been . We hoped Lennie had <b>seen</b> <b>the</b> <b>light</b> and the problems with his choices but not a chance as he straight swapped him for Campbell and ignored Mahon . A chance to redeem things and we let it go , fans shuddered . 
71780	see the light	figuratively	The last coastguards left in 1925 . Several ideas for Gibraltar Point were considered after this , including a speedway track and a new town , but fortunately neither <b>saw</b> <b>the</b> <b>light</b> of day . The Coast Guard House in the 1930s In 1937 , Lindsey District Council bought most of the point , to safeguard it against further development . 
77994	see the light	figuratively	9. The Japanese title ' Gunnm ' translates as ' Gun Dream ' , and is pronounced ' Gahn-mu '10 . Despite its popularity in the US and UK there is still plenty of Battle Angel Alita that has yet to <b>see</b> <b>the</b> <b>light</b> of day in English . Japanese fans can also read a Battle Angel Alita novel , the short manga series Gunnm Gaiden and an encyclopaedic wad of technical notes , production sketches and background info known as the Tech Notes . 
91178	see the light	figuratively	And it 's kind of grown from there , so since it 's started we 've put out 2 DJ Marky compilations , 2 Patife compilations , an XRS album , a Drumagick album . Unfortunately none of these have <b>seen</b> <b>the</b> <b>light</b> of day outside Brazil . But that 's all changing now . 
98967	see the light	figuratively	" As a Queen fan , Dan admits he does n't just like " concise pop songs " - he 's also a bit partial to " prog epics with ludicrous outros . " This perfect blend of pop and prog will soon <b>see</b> <b>the</b> <b>light</b> of day on The Feeling 's debut album í‰äóìTwelve Stops And Homeí‰äó . It will be a 12-track affair " with no fillers , all stonkers - a classic album . 
103179	see the light	figuratively	Welcome back Ollie. top of the page í‰äó¢ Marvin Gaye - The Very Best Of... / Florence Ballard - The Supreme ... I must confess I deliberated as to whether these two collections ought to be on the ' Been Missed ' page or on here . I plumped for here as some of these tunes have only <b>seen</b> <b>the</b> <b>light</b> of day via these releases . Just when you think that you have everything that Marvin has released of any quality over the years , along comes this gem of a release . 
105623	see the light	figuratively	Dogfights are now the cinematic , sweeping fights that they should be , and starships turn in broad , smooth circles , showing their massive firepower and armour to anyone who should see them . Earth 2160 should <b>see</b> <b>the</b> <b>light</b> of day around the end of August , and let me tell you ; this is one game Multiplay will be watching carefully , as it is sure to make a serious mark on the RTS genre . 
106664	see the light	figuratively	Date : 10/22/2002 Newsfeed - Drink labels/ads under threat - The government is concerned about the health and crime implications of heavy drinking . If these proposals <b>see</b> <b>the</b> <b>light</b> of day , advertising , marketing and labelling of alcoholic drinks will all be affected . For the ingredients of the suggested regulatory brew go to 
109345	see the light	figuratively	My own schooling was affected by Apartheid , something I 'll never forget . Why I 'm in teaching I want to make a positive contribution , I like to <b>see</b> <b>the</b> <b>light</b> go on in kids ' eyes , I like bossing people about . One complaint Not enough opportunity to boss people about . 
114521	see the light	figuratively	I 've married the same man over and over again . He just looked different and wore different clothes.í‰äó In 1982 Staton <b>saw</b> <b>the</b> <b>light</b> , and knew she had to quit drinking. í‰äóìI had allowed alcohol to take my life over,í‰äó she says. í‰äóìI was destroying everything in my body . One day I just went cold turkey and said , í‰äóÖI 'm not gonna do this anymore'.í‰äó Instead she returned to the church of her childhood , forsaking soul music for the gospel of her formative years . 
115557	see the light	figuratively	Andrzejewski 's own subsequent actions appear rather bizarre , in that he stipulated to the Instytut Literacki that it adopt the cuts imposed by the Polish censors , which it refused to do . The novel eventually <b>saw</b> <b>the</b> <b>light</b> of day only in a three-volume underground edition in 1979 . It was the period of Martial Law , however , which saw the publication of his long-banned The Appeal and Pulp " above ground " , albeit in an abridged and censored form . 
117049	see the light	figuratively	January 16 : The Youth team triumphed over Southampton in the FA Youth Cup at Elland Road tonight and will now face the winners of a tie between Villa and Barnsley in the next round . January 16 : DOL has <b>seen</b> <b>the</b> <b>light</b> ! " It 's very difficult to change formations in mid season as you have to put a lot of work into it for it to pay-off . 
120246	see the light	figuratively	Instead , they lay , gently maturing in the pure Orkney air for more than 30 years . Then the time came for them to <b>see</b> <b>the</b> <b>light</b> of day with the release of the ' John Scott 's ' series of independent bottlings . John Scott , the original title of our company , featured on all shop bottlings of ' Highland Park ' until 1955 , and so , it was in homage to this practice , that we adapted the old name , to identify our own expressions of this prestigious and distinctive malt . 
122105	see the light	figuratively	From his early days in London through to his death in 1994 he faithfully documented the vibrant community around him . Last year the extraordinary images <b>saw</b> <b>the</b> <b>light</b> of day after a decade in storage . Covering Petticoat Lane , Brick Lane and Whitechapel , they are the only known document by a black photographer working in London from such an early date , making the exhibition 's inclusion in Black History Month particularly poignant . 
122870	see the light	figuratively	During his career in the RAMC , he was awarded the Tullock Memorial Prize for Tropical Medicine and the Ronald Martin gold medal for Military Medicine . In 1955 Rodney <b>saw</b> <b>the</b> <b>light</b> , or possibly the x-ray , and decided to pursue a career in Diagnostic Radiology . His initial Registrar post at Guy 's ( 1955-58 ) was followed by a Senior Registrar post at St Georges Hospital , Hyde Park Corner ( this building having since become the Lanes Borough Hotel ) . 
123842	see the light	figuratively	The Original Movable Fighting Man . Action Man first <b>saw</b> <b>the</b> <b>light</b> of day in January 1966 when Palitoy Ltd , of Coalville , Leicester , unveiled their 12 " Action figure . It had been a close run thing. www.doc.mmu.ac.uk www.myactionman.com .. . 
132737	see the light	figuratively	Like I said , I 've not got very far yet. ) I 'm not going to release the source code just yet , because , well , frankly it 's a crock . I 'd be embarrassed to let it <b>see</b> <b>the</b> <b>light</b> of day with my name associated with it ... It 's a work in progress and it shows . But I 'll explain how the zoom effect is done , in case you 're wondering . 
133712	see the light	figuratively	Drarok 18th August 2005 , 13:29 Originally posted by Baz thats right , i wo n't laugh if i do n't find the jokes funny:rolleyes : Gervais standup is reasonably funny , but i found the office dire . Finally , someone else who has <b>seen</b> <b>the</b> <b>light</b> ! [ DOA]meshed 18th August 2005 , 13:45 the comedy behind the office was its subtlety its so f00kin true its scary , hence the comedy office = legendary the bit where he pretending to fire his mate , and he actually rang the talking clock . 
134175	see the light	figuratively	This meant assembling a team , allocating subjects , and ensuring a uniform and succinct style , a task demanding the skills of a circus ring-master . The first edition <b>saw</b> <b>the</b> <b>light</b> of day in 1968 . The Textbook of Dermatology , known affectionately the world over as the Rook Book , has now reached its fifth edition . 
134811	see the light	figuratively	P raying for change in others is bit more complex . I have had people tell me that they will pray for me to <b>see</b> <b>the</b> <b>light</b> , to recognise the error of my atheistic ways etc. They pray to god asking him to directly intervene and alter a person 's life . They effectively want god to temporarily remove someone 's free will ( which theists always hold to be so sacred ) . 
138496	see the light	figuratively	The Cure . Special mention to Todd Rundgren : " Hello it 's me " is just so beautiful as is " I <b>saw</b> <b>the</b> <b>light</b> " . If I 'm ever feeling sentimental ( as opposed to when I 'm ' semi-mental ' ) a Todd Rundgren CD goes into the player . 
143035	see the light	figuratively	So if the problem 's not with the message , what is the problem ? Verse 4 : The god of this age [ which I take to mean the devil , ie Satan ] has blinded the minds of unbelievers , so that they cannot <b>see</b> <b>the</b> <b>light</b> of the gospel of the glory of Christ , who is the image of God . The problem is wilful blindness . 
143776	see the light	figuratively	The reconstruction includes part of a wartime grocer 's shop and displays about life on the home front ranging from the Blitz to the blackout . Missionaries For more than 200 years missionaries from Britain have attempted to convert the heathen souls who they believed ought to <b>see</b> <b>the</b> <b>light</b> . At its height , between 1880 and 1920 some 60 societies were actively engaged in many parts of the world , from China and Borneo to Africa and the Pacific islands . 
156632	see the light	figuratively	There is no doubt at all , he is dead . Yet after the suffering of his soul , he will <b>see</b> <b>the</b> <b>light</b> of life and be satisfied ! He will rise again , not avoiding death but by passing through it to the other side . 
157124	see the light	figuratively	The investor knows where he or she stands and can diversify away within his or her own portfolio as necessary . Now BAT has <b>seen</b> <b>the</b> <b>light</b> and is committed , so far as one can judge , to paying out all its surplus cash flow in either dividends or share buybacks . This is music to the ears of any income investors and BAT more than deserves keeping its place in the portfolio even after a decent rise this past year . 
163180	see the light	figuratively	European Event of the Year 2000 " . This will take place at Arnhem in Holland between 5-9th July to celebrate the 45th anniversary of the M.G.C.C. Holland : as most of you will realise , it will also be the 45th birthday of the MGA , which first <b>saw</b> <b>the</b> <b>light</b> of day in 1955 as far as the public were concerned . More details will be provided regarding ferry and hotel bookings when they are known . 
166700	see the light	figuratively	Yet Mark Twain , still warm with the creative fever , had the fullest faith in it as a work of art and a winner of fortune . It would never <b>see</b> <b>the</b> <b>light</b> of production , of course . We shall see presently that the distinguished playwright , Dion Boucicault , good-naturedly complimented it as being better than " Ahi Sin . 
62	see the light	literally	Cast your eye over each area for things you neither use nor love . Identify where you 've put objects that are useful but are stored so badly that they never <b>see</b> <b>the</b> <b>light</b> of day . And keep a look out for areas where you 've stuffed different types of items together in no discernible order , say the cupboard under the stairs . 
1034	see the light	literally	I know Matt Hills ( Cultural studies lecturer who provides the audio commentary and analysis ) and I 'm very aware that the academic focus he brings to bear operates in a quite different way to my own methods . Paul Kane : Oktober was to be made by Zenith a long time ago ; is there any chance that the other novels optioned - such as Down River - might <b>see</b> <b>the</b> <b>light</b> of day now on TVí‰äó_or maybe even as feature films ? How about films such as The Boat House ? 
12350	see the light	literally	" Coach driver Pamela Bailey , 48 , pulled over when she saw them . She was driving the Megabus back from London when she <b>saw</b> <b>the</b> <b>lights</b> from the A40 at Golden Valley . Mrs Bailey said : " I stopped at the Arle Court roundabout and the passengers were all looking up at the sky . 
24438	see the light	literally	Then remembered I have n't laid eyes on another piece of land for millennia . Thought I <b>saw</b> <b>the</b> <b>lights</b> of St Kilda through the darkness , which got me musing on the terrible price one must pay to live on the edge of the world . Reminded of some Vikings who sailed by around 1,000 years back , heading West . 
46803	see the light	literally	My last experience of Morocco in Fez had been a bit arduousí‰äó_.especially as there was no hot water , except for in the hammam , where I was bent double and beaten black and blue by a so called masseur ! I could <b>see</b> <b>the</b> <b>lights</b> of Tangiers twinkling on a dusky horizon and I wondered . Would the overnight sleeper train that would whisk me down through the arid red deserts to Marrakesh be like the Orient Express ? 
52699	see the light	literally	There would be day-trips to London . They 'd gone to <b>see</b> <b>the</b> <b>lights</b> in Regent 's Street , and once to the ballet , where Eeva was fascinated by the impossibly dextrous bodies of the dancers . Eeva thought even then that it was like they were playing the roles of mother and daughter , dutifully going on appropriate excursions . 
77268	see the light	literally	It appears stationary in the sky because it is heading directly towards you . Only when it gets much nearer do you <b>see</b> <b>the</b> <b>light</b> begin to move , and then appear to accelerate . Training a pair of binoculars on the light usually reveals the telltale navigation lights on the aircraft . 
83991	see the light	literally	Now , letí‰äó»s go!í‰äó» At a gallop , Xanthus flew into the darkness and the donkey , spurred on by the threat of recapture , did his best to keep up . Behind them came the sound of shouting and cursing and , glancing back , Drimwort <b>saw</b> <b>the</b> <b>lights</b> of lanterns as the dwarfs spilled out into the gorge . But soon the lights were left behind and after half an hour or so of hard riding the travellers were through the pass and far beyond the dwarfsí‰äó» clutches . 
90668	see the light	literally	Use It or Lose It There are 1 billion artefacts held by UK museums and galleries . However , about 800 million of them never <b>see</b> <b>the</b> <b>light</b> of day , and are stored in museum and gallery basements where they cannot be used and enjoyed by learners . Of course , many of these collections are fragile or sensitive and it is quite right that they should be held in museum stores where they should be properly cared for and researched by specialists . 
98317	see the light	literally	What 's that I see , am I having a dream ? The hunter rose to see what he saw , to <b>see</b> <b>the</b> <b>lights</b> merge into a figure , that of a boar . What is this magic I see before me , is it evil set to harm me , or is it sent from god to have for my tea ? 
141149	see the light	literally	Any cuts , damage or reduction in tyre pressure needs urgent attention as well as keeping the tyres at the legal minimum tread depth of 1.6mm . <b>Seeing</b> <b>the</b> <b>light</b> It is important that your lights are properly adjusted not only for your benefit but also for any oncoming traffic . As well as checking for any blown bulbs it 's worth getting into the habit of wiping the lights to keep them at maximum efficiency . 
141538	see the light	literally	Calves are crammed into dark , wooden boxes so small that they cannot turn around . Motherless and alone , they suffer from anaemia , diarrhoea , pneumonia and lameness and <b>see</b> <b>the</b> <b>light</b> of day only on their way to slaughter . Veal crates will be phased out in the EU in 2008 , but veal production will remain . 
2225	small potato	figuratively	They made 100 million in an out of court settlement . That 's no <b>small</b> <b>potatoes</b> . From pads to polygons , Atari probably owned the patent , but rarely kicked up a fuss . 
16867	small potato	figuratively	Posted by Blue Witch on 3 September , 2004 at 10:22 AM Yes but there wasnt a comments thingy so I had to improvise and use the nearest one . But yes , the sharpened elbows at the china department are <b>small</b> <b>potatoes</b> in comparison . Posted by Debster on 3 September , 2004 at 11:18 PM 
18169	small potato	figuratively	' said the captain . ' Probably mighty <b>small</b> <b>potatoes</b> . That 's a thing a fellow figures out for himself one way , and the real business goes quite another . 
23079	small potato	figuratively	So they just send me Bank Drafts till we 're up and running . And it 's <b>small</b> <b>potatoes</b> in the scheme of things - the company 's loaded . " Before I know it I 've been dragged out of the conference like a shot and into an environment more suited to decision-making . 
23776	small potato	figuratively	IBPT 's latest project , Trinity Lodge in Back Hamlet , is subject to an application for an amount in excess of í‰Œ£ 200,000 and it is likely that renovation of 45 St Nicholas Street on the comer of Silent Street will also be subject of a substantial bid . Collectively this is still <b>small</b> <b>potatoes</b> compared with grants to projects in , for example , the North-East . So what 's next ? 
32547	small potato	figuratively	Regardless of one 's political colour , or how you feel about the billions of pounds of our taxes being pumped into leaking , unreformed and inefficient public services , nobody can argue that this government has been open and honest about taxation . This is bad enough , but <b>small</b> <b>potatoes</b> compared to the damage being done to the UK 's motivations to save and work hard to increase our standard of living and the country 's prosperity , and to trust our politicians and political system . 
48144	small potato	figuratively	Gleick suggests that his goal was to apply rational analysis to theological doctrine . Certainly Newton ( with his contemporary and correspondent , John Locke ) came to reject the doctrine of the Trinity , but that is only <b>small</b> <b>potatoes</b> . Finally , there is the matter of the Principiae , Newton 's ultimate statement of how the world works . 
56988	small potato	figuratively	" ( 1 Kings 17:1 ) When you 're accustomed to standing before God kings do n't matter much . Big potentates are just <b>small</b> <b>potatoes</b> when you have been standing in the presence of the Most High . My .... this is where Elisha stood . 
58307	small potato	figuratively	We need to remove Saddam Hussein from power , not ( only ) because of the last massive terrorist attack , but because of the next . His well-documented pursuit of chemical , biological and nuclear weapons of mass destruction í‰äó_ which he could hand off to any number of willing terrorist groups í‰äó_ makes more likely a horrific day that would render Sept. 11 <b>small</b> <b>potatoes</b> in comparison . Plus , what about Saddam 's link to terrorism generally ? 
62320	small potato	figuratively	Is Still #1 A #2 debut on the Billboard albums chart is a big deal for Los Lonely Boys , whose Sacred scanned more than 66,000 copies . But that 's <b>small</b> <b>potatoes</b> compared with Now That 's What I Call Music ! which easily holds the #1 spot . 
66740	small potato	figuratively	I think around 113bhp at the flywheel is typical for your car , which from 90bhp appears piddly , but brings bags of extra torque . Go to the right ' mapper ' and you 'll pay <b>small</b> <b>potatoes</b> for this too . Not sure that larger intercooler alone will help achieve big gains , might need to look at different turbo / wastegates , manifold etc... either way starts adding loads of money - which takes you more into " why do n't I just aim for a 320d " , and so on . 
70391	small potato	figuratively	The fact that a breeder does n't know what he modifies does n't take away the ethical problem encountered when humans decide what is best for the planet . We have made such decisions for thousands of years , using the principle that a bigger potato is better for the planet than a <b>small</b> <b>potato</b> . Is that really so ? 
92649	small potato	figuratively	Look at the universe , then look at us . Pretty <b>small</b> <b>potatoes</b> . Look at ( or think about , at least ) atoms and quarks . 
116437	small potato	figuratively	After all , other religious adherents may claim that the spirit of their god is telling them of the certainty of their beleifs . At any rate , these two very minor " goofs " , if I may call them that , are <b>small</b> <b>potatoes</b> in an other wise very rationally solid book of reasons for biblical faith . Strengthened my faith , but there are better apologetics I was born and raised an atheist in a family of atheists . 
125362	small potato	figuratively	Ií‰äó»m not talking about the big one getting away . Thatí‰äó»s <b>small</b> <b>potatoes</b> in the great and predictable order of fly fishing . The consistency of some events is astonishing . 
139583	small potato	figuratively	All too often there is a coke deal or a hooker in the background . By Hollywood standards , then , the Royal scandals were <b>small</b> <b>potatoes</b> . It was hard to see what all the fuss was about . 
144580	small potato	figuratively	Add to that the declaration by 25 MP 's that they wo n't serve Kennedy . For me , the lying is n't the problem , particularly when this is <b>small</b> <b>potatoes</b> when compared with WMD , as has alreasy been said : the problem is that Kennedy 's campaings have been based on his probity and integrity . That has now been blown out of the water . 
146344	small potato	figuratively	Some have had difficulty in getting their hands on it , I have to say . For instance my sister tried to order multiple copies for Christmas presents through Waterstones ( Leeds ) but was basically told the amount was <b>small</b> <b>potatoes</b> and she 's have to wait indefinitely . She did eventually get them , but not in time for Santa . 
148486	small potato	figuratively	The gearbox is all wrong . We are all aware that there is a lot of work being done on the mechanics of the gearbox to make a smoother , slicker shift , but it is <b>small</b> <b>potatoes</b> compared to the real problem with the unit í‰äóñ unless they 've twigged that too , and are just keeping quiet . I mentioned before that it 'd probably climb trees in third , and that is in some ways the problem : it should n't . 
159074	small potato	figuratively	You 've all shown what volunteers can do if they work together. [ Ben ] Hey , it 's a labor of love . We may all have our own reasons for being here , but in the end it comes down to us putting out a quality ' zine that benefits a large community ; that 's not <b>small</b> <b>potatoes</b> . It sure gives me a good feeling to know that our efforts help people , that LG is acting as a force multiplier for our advice , tips , and so on. [ Thomas ] More importantly , we 're still showing that . 
167217	small potato	figuratively	Meanwhile , free speech is increasingly squeezed by the demands of Muslims for more religious protection , silencing most of the usual voices who should defend the right to cause offence . The Jerry Springer story is <b>small</b> <b>potatoes</b> in comparison - but it 's the harbinger of a cowardly culture shift that lets religious intimidation win . First , let me declare my interest . 
6103	small potato	literally	However , scientists now know that long before the Big Bang came the Little Pop . The Little Pop produced a Universe the same size and shape as a <b>small</b> <b>potato</b> . It stayed like this for the next 900 billion years , doing very little . 
8956	small potato	literally	Since it uses a classic beef stock , it is , of course , unsuitable for vegetarians . Cream of Watercress Soup 1 medium-sized onion 1 <b>small</b> <b>potato</b> 1 oz butter or margerine 1 bunch of watercress íƒäóì pt milk íƒäóì pt vegetable stock 4tbs fresh double cream Chop the onion and potato . Melt the fat in a saucepan and sautí€Œ© the onion until transparent . 
15790	small potato	literally	However ample the table , everybody was expected to clean up his plate , else he ought not to have taken so much . They dug every <b>smallest</b> <b>potato</b> from the row , and wrenched every least nubbin from the husk . They gleaned their grainfields and raked their meadows clean . 
27000	small potato	literally	Enjoy ! Lamb Neck and Cabbage Potjie 2 tbs cooking oil 2 large onions , chopped 14 lamb neck chops 250g bacon , diced 16 <b>small</b> <b>potatoes</b> , peeled and quartered 1 small cabbage , cut in 8 pieces dash of lemon juice with 500ml water dash of mixed herbs salt and black pepper to taste 1. Heat the oil in a medium-size Potjie , then fry the onions , bacon and lamb chops for about íƒäóì hour , stirring from time to time . Cover with lid and leave to cook for about 45 minutes . 
29970	small potato	literally	If they will but choose to come up , I have no doubt many would be great rarities . In the Mendoza bag there are the seeds or berries of what appears to be a <b>small</b> <b>potato</b> plant with a whitish flower . They grow many leagues from where any habitation could ever have existed owing to absence of water . 
36101	small potato	literally	Try to go for oven chips with a content of less than 5 % - a serving of these will save you almost 20g of fat and 200 calories , compared to the deep-fried version . Crispy potato wedges 1 medium or 2 <b>small</b> <b>potatoes</b> ( 100-120g ) 1 íƒäóì tsp olive oil Preheat oven to 200 degrees . Wash potatoes but do not peel . 
38938	small potato	literally	0.75 ----- In all.......................................$ 14.72 1/2 My income was ( patremfamilias vendacem , non emacem esse oportet ) , from Nine bushels and twelve quarts of beans sold..$ 16.94 Five bushels large potatoes ... ... ... ... ... ... . 2.50 Nine bushels <b>small</b> <b>potatoes</b> ... ... ... ... ... ... . 2.25 Grass ... ... ... ... ... ... ... ... ... ... ... ... ... . 
39180	small potato	literally	POTATO WINE : Some wanted a recipe for Potato Wine - here it is from the 1900 Cook book - courtesy of the Women in Yorkshire ! - From Ann Scott : Wash well but do not peel 1/2 gallon <b>small</b> <b>potatoes</b> . Put them into a pan with 1 gallon of water . 
42304	small potato	literally	Potatoes can be severely damaged by a late frost . The cheapest way to protect <b>small</b> <b>potato</b> plants from a late frost is to draw a little soil from the edges of the bed over them - they will force their way through later on with no problems . Click here for easy to follow instructions on growing potatoes . 
43040	small potato	literally	BEEF SOUP STOCK ( _Brodo di Carne_ ) 1 pound of round of beef 2 quarts of water 2 small , new carrots , or 1/2 of an old carrot 1/2 pound of beef bones 2 <b>small</b> <b>potatoes</b> 1 onion 1 tomato , fresh or canned Parsley Boil the beef , bones , and vegetables in two quarts of water over a slow fire--adding pepper and salt . Skim occasionally , and after two hours add two tablespoons of sherry ; then strain through fine soup-strainer or cheese-cloth . 
48924	small potato	literally	It is common in most of Britain , but rarer in Scotland . Lords and Ladies has a tuberous root , like a <b>small</b> <b>potato</b> . It is brown on the outside and white within . 
73943	small potato	literally	The strawberries have little green berries on the so strawberry jam is on the cards soon . The garlic is doing well and the <b>small</b> <b>potato</b> bed looks fine . Lots left to do now the weather has changed , sowing , planting and last but not least , constructing the greenhouse . 
96577	small potato	literally	I did not have enough dinner on Sunday for Eileen . All I had was a small piece of stewed mutton about as large round as a dessert spoon , one tablespoonful of cabbage and one <b>small</b> <b>potato</b> . I ate it all in about 3 or 4 mouthfuls . 
111656	small potato	literally	The park caters for all recreation needs with a good selection of accommodation and sporting facilities ( mountaineering and hiking ) . Local dishes include bryndzoví€Œ© halusky ( <b>small</b> <b>potato</b> dumplings with sheep 's cheese ) . General Information Area : 49,033 sq km ( 18,932 sq miles ) . 
111657	small potato	literally	Slovak specialities include both sweet and savoury dishes made with flour , including dumplings . One such dish is the popular bryndzoví€Œ© haluí‰Œçsky ( <b>small</b> <b>potato</b> dumplings with sheep 's cheese ) . Popular drinks include Slovak beer , wine and mineral waters . 
114504	small potato	literally	Please complete this form . BACK TO RECEIPES DIVINE DOGGY DINNER 1/2 pound ground beef -- or turkey , chicken , lamb 1/4 cup cooked rice 1 <b>small</b> <b>potato</b> 1/4 cup green beans -- about 5-8 beans 1/4 teaspoon garlic powder Brown the meat in a pan . When completely cooked , drain the fat . 
134616	small potato	literally	Notes : As a potato substitute , you can use 3 cups of cooked oatmeal or 3 cups cooked brown rice . Dog Recipe #2 : Meat Casserole 500gms of any meat 1 carrot finely chopped 1 <b>small</b> <b>potato</b> finely chopped 1 stick celery finely chopped 1/2 cup sliced green beans ( stringless ) 1 tbsn Gravox Place all ingredients into a large casserole dish . Cover with water and mix . 
141822	small potato	literally	Fruits such as apple , pear , peach , strawberries , cherries - or cans in natural juice ( choose no-added-sugar brands). flaxseed oil - from health food stores . Very <b>small</b> <b>potatoes</b> if you 're very active or for days when you just feel you need carbs . Ryvita and proper granary bread . 
145863	small potato	literally	Cut seed potatoes in chunks before planting , maintaining two or three " eyes " in a chunk . <b>Small</b> <b>potatoes</b> can be planted whole . As you gain experience in how to grow potatoes , you 'll learn that there are nearly as many ways to grow them as there are to cook them ! 
155108	small potato	literally	Strain and bottle . HOCK 2 lbs <b>small</b> <b>potatoes</b> , 3 oranges , 3 lemons , 1 lb raisins , 4 lbs brown sugar . Slice unpeeled potatoes . 
166202	small potato	literally	More importantly , as far as the spectators were concerned , special mounds were created to improve viewing and accessibility . By now the management was convinced that from those <b>small</b> <b>potato</b> fields had grown a golf course of which everyone could be proud . Indeed the Ryder Cup returned to The De Vere Belfry in 1993 , when the United States retained Samuel Ryder 's elegant golden chalice following their win at Kiawah Island in South Carolina in 1991 . 
166203	small potato	literally	De Vere , owners of The De Vere Belfry , are loyal and long-standing supporters of the Association and of golf in general . " There can be no doubt , too , that there will be much to celebrate in September , 2002 , when the eyes of the sporting world will focus on The De Vere Belfry and once again will come ample evidence that from those <b>small</b> <b>potato</b> fields has grown a course of which all can be proud . " 
95969	take it to the bank	figuratively	Deutsch asked Hulk to compare working for Vince and his father . Hulk said that when both men told you something , you could <b>take</b> <b>it</b> <b>to</b> <b>the</b> <b>bank</b> . Bret Hart would no doubt disagree with that . 
220	take it to the bank	literally	í‰äóìWe also sometimes take tenantsí‰äó» National Insurance number , so you can trace them if something untoward happens,í‰äó says Pugh. í‰äóìBut leaving her birth certificate in the attic í‰äóî that was a bit silly . If I had been her I would have <b>taken</b> <b>it</b> <b>to</b> <b>the</b> <b>bank</b> and put it in a safe.í‰äó No doubt Litherland agrees . But then , hindsight is a very useful thing . 
15034	take it to the bank	literally	Sometimes . Most of what I do is administrative - new applications , collecting money from the gate and <b>taking</b> <b>it</b> <b>to</b> <b>the</b> <b>bank</b> , sorting out wage deductions with payroll ... ...dealing with stroppy phone calls ? What I really like is that it 's never the same two days running . 
54080	take it to the bank	literally	What can I do ? If the doctors think that it is possible that in a short time your husband will recover enough speech to be able to manage the finances again , it would be worth getting a letter from one of them to explain the situation and <b>taking</b> <b>it</b> <b>to</b> <b>the</b> <b>bank</b> manager . Particularly if the bills that need paying are regular out-goings , the bank will probably agree to make a special arrangement . 
83855	take it to the bank	literally	Cllr Calver felt that it was unfair to ask other councillors to take this on without knowing the extent of additional information of which Cllr Wales had informed the council were now requesting over and above what was in the mandate . He confirmed that he would complete a new mandate form for the bank and <b>take</b> <b>it</b> <b>to</b> <b>the</b> <b>bank</b> to confirm Cllr Wales ' statement that an additional form was required and their need for additional information . 
104521	take it to the bank	literally	They will make lots of reasons why there is an overpayment and you 'll receive a very authentic looking cheque , it will be an excellent forgery . So excellent that when you <b>take</b> <b>it</b> <b>to</b> <b>the</b> <b>bank</b> they will actually put it into your account . Your bank balance will then show the extra amount , in this case í‰Œ£ 2,500 í‰äó_ CK : And it will be credited until it clears properly . 
114700	take it to the bank	literally	. " I wish Edward would come , and <b>take</b> <b>it</b> <b>to</b> <b>the</b> <b>bank</b> ; a burglar might come at any moment ; it is dreadful to be here all alone with it . " At eleven Mr. The Man that Corrupted Hadleyburg and other Stories Page 03 Mark Twain Free Books in the public domain from the Classic Literature Library í‰Œ© 
129398	take it to the bank	literally	They just have to be good enough to be passed from person to person , " he says . " By the time you pass it to a store clerk and the store <b>takes</b> <b>it</b> <b>to</b> <b>the</b> <b>bank</b> and the bank is able to detect it , the criminal is long gone . " Detection and deterrence So , what could be done ? 
138124	take it to the bank	literally	Is to take care of pewter engravings and other old regalia and other things in the office , such as the computers and other supplies . Treasurer Handles money <b>taking</b> <b>it</b> <b>to</b> <b>the</b> <b>bank</b> , deals with peoples ' invoice and claim forms and liaises with the union on money matters . Is generally in charge of overseeing budgets as well as creating the RSM 's overall budget . 
159444	take it to the bank	literally	First Direct were set up specifically to offer phone banking and are still one of the best in their field . Alternatively , the cheque is sent to you for you to <b>take</b> <b>it</b> <b>to</b> <b>the</b> <b>bank</b> or pass on if you have asked that it be made payable to a third party . Details of current accounts and credit accounts can be accessed this way usually by push button telephone , but you can be on the phone for some time as you navigate your way through the different menus . 
161850	take it to the bank	literally	Bills that you pay by direct debit , divide into four equal parts and add it to your weekly pay-out . Make sure that you <b>take</b> <b>it</b> <b>to</b> <b>the</b> <b>bank</b> each week ( a must ) . If you can round-up figures such as í‰Œ£ 4.51 to í‰Œ£ 5.00 , you can save this amount in the bank . 
4178	up to here	figuratively	Posted by : Tom Shugart | April 8 , 2004 06:47 AM Courage , man ! Just walk right up to your parents and tell them that you 've had it <b>up</b> <b>to</b> <b>here</b> with the damn monarchy and have signed on with the Yanks . Then tar and feather them . 
7435	up to here	figuratively	That was the onset of the weight loss . <b>Up</b> <b>to</b> <b>here</b> , we 're on parallel paths . Where we diverge , though , is in adulthood . 
15818	up to here	figuratively	I 've had it <b>up</b> <b>to</b> <b>here</b> with the pissing attitude people have . I 'm not allowed to call someone who blows themselves up on a train a terrorist , as that 's inciting religious hatred . 
22064	up to here	figuratively	If you and to feed into the campaign or if you are affected by this issue and would like your story to be used as an example please get in touch with Jane and Frances at NCIL . ROLL UP If you have had <b>up</b> <b>to</b> <b>here</b> with sorting out your PA 's wages perhaps use of a payroll service is just the thing you need . They look after all those tedious tax and National Insurance issues while you just write the cheques to the Inland Revenue and to the PA . 
35670	up to here	figuratively	Sorry to disappoint the Welsh amongst you , but it 's not because there 's sheep available , but because the toilets are awash with urine . If you 've continued reading this crap <b>up</b> <b>to</b> <b>here</b> then you are obviously the sort of Expat that will find this bar right up his street ! Not for the faint hearted ! 
43591	up to here	figuratively	How many idioms are there is this declaration ? ' I 've had it <b>up</b> <b>to</b> <b>here</b> with battling with idioms . The language is awash with them , and you have to wade through a dictionary to get to grips with a simple sentence . 
43809	up to here	figuratively	Subsequent post-war deaths by influenza made the stiff upper lip stiffer . People learned to say : " Do n't tell me your troubles , I 've had mine <b>up</b> <b>to</b> <b>here</b> " and only now is the nation 's emotional health being re-invented with a more Chaucerian relish . But do n't tell the press and pressure groups like Civitas . 
44311	up to here	figuratively	Even her own dad ca n't phone when he says he will . And Jude 's mum is driving ... Format : Paperback ( a Format ) - Released : 18/10/2002 Price : í‰Œ£ 3.74 - Saving í‰Œ£ 1.25 ( 25 % ) more info | add to wishlist | buy Tattoos , Telltales And Terrible , Terrible Twins Karen Mccombie Ally 's had it <b>up</b> <b>to</b> <b>here</b> . She was quite prepared to give her long-lost uncle and his family the benefit of the doubt , but that was before she met them . 
65116	up to here	figuratively	But it is also doomed in terms of democracy - there is n't intended to be any - and popular dissent . It is increasingly obvious that people across Europe have had it <b>up</b> <b>to</b> <b>here</b> with the EU , and that the only safe place to be is outside the last gate of the prison as it is slammed shut . " Annabelle Fuller " I support the BETTER OFF OUT campaign " John Gallon " Politicians express their concern that the general public have become disengaged from the political process . 
66230	up to here	figuratively	8th July 2006 That 's it , I 've had enough . I 've had it <b>up</b> <b>to</b> <b>here</b> with e-mails providing updates to information and corrections to errors or omissions . I have too many of the damn things . 
66811	up to here	figuratively	I 'd read good things about this release and hearing it for myself I can say I really like it . Excellent front cover , fucking furious sound but easy to follow the music and lyrics compared to a lot not at all boring really nice recording over all a fucking great CD and if you have had it <b>up</b> <b>to</b> <b>here</b> with fake punk you should get this . 
78832	up to here	figuratively	I just have one thing to say to them . HELLLLLLOOOOO?... by : Cantthinkofname Graaaaaaaaaargh 16 July , 2006 I 've had it <b>up</b> <b>to</b> <b>here</b> with the pissing attitude people have . I 'm not allowed to call someone who blows themselves up on a train a terrorist , as that'... by : Jimzilla $ 599 US Dollars 14 July , 2006 Ok who the HECK wants the Sony PS3 ? 
81280	up to here	figuratively	If a Fairy chooses to wear a revealing dress that 's not an invitation to molestation at work . " Brothers and sisters , we 've had it <b>up</b> <b>to</b> <b>here</b> , " Miss Cracker indicated . Observers were quick to note that she skilfully avoided the equal opportunities issue , raised last year , when some men had called for the right to be Fairies too . 
82492	up to here	figuratively	" Oh do n't mind him , " she screamed . " I 've had it <b>up</b> <b>to</b> <b>here</b> with him and his bloody stories . Contender this and contender that ! 
85232	up to here	figuratively	There was n't a political message behind it . It was an expression of rage , of having it <b>up</b> <b>to</b> <b>here</b> , a reaction against injustice , against a sense of ghettoisation and marginalisation , against persecution from the authorities , the police , and so on . But you could n't say that they 're listening to us now . 
94794	up to here	figuratively	Mrs Brewin said : " We feel that we are crying in the wilderness and nobody is listening to us . I doní€Œ¢í‰ä‰åí‰ä‹¢t normally swear , but I am <b>up</b> <b>to</b> <b>here</b> with all of this . " I stood in front of the mechanical bucket and told the workmen that I was not budging until they stopped the work , but the work started again the following day . 
111667	up to here	figuratively	It came out from what the teacher himself said . <b>Up</b> <b>to</b> <b>here</b> things could be forgotten . However , the student happened to be with the same teacher again and this time the teacher made sure that he never could come back and register in our institute and all its branches which is a rival-less institute . 
113064	up to here	figuratively	Q : What if I simply wo n't have time to do any of this . I 'm just <b>up</b> <b>to</b> <b>here</b> with work ! A : Complying with the FOI Act is a legal obligation that cannot be avoided . 
117094	up to here	figuratively	Rather like Timbaland and the recent Missy missive . I think I have had it <b>up</b> <b>to</b> <b>here</b> with these big name production teams . There is one Timbaland produced number on Alicia Keys ' Diary Of í‰äó_ It is easily the weakest song in the set . 
122942	up to here	figuratively	" The astonished Mr Smith was told that he would have to bring a claim against the police to recover the cost of the bikes . Mr Smith said : " I have had it <b>up</b> <b>to</b> <b>here</b> with the police . My children have got to walk to school and they are n't going to trust the police any more . 
128723	up to here	figuratively	People start to look at them . We have something here that they can use , that they can use this sort of thing - they can buy some of this from me or anyone else in the market and wrap round them <b>up</b> <b>to</b> <b>here</b> you know . That 's a good idea , I think . 
129193	up to here	figuratively	Ken . 31-1-2006 I have had it <b>up</b> <b>to</b> <b>here</b> and beyond with BT-Yahoo technical support . You cannot find a number anywhere on their website for you to call ( I resorted to calling BT , who patched me through ) . 
130460	up to here	figuratively	Thank you and good day , Mr. Pintulo 09.26.03 | 11:58 AM bearskinrug Pintulo ! I 've had it <b>up</b> <b>to</b> <b>here</b> with your threats ! Uh , I 'm making a gesture to indicate " here " . 
132007	up to here	figuratively	Her Majesty made the announcement in yesterday 's Queens Speech , breaking off from the prewritten text to begin a rambling monologue about how fed up she was . " I 've just about had it <b>up</b> <b>to</b> <b>here</b> . I work my guts out Queening for you lot and what thanks do I get ? 
135447	up to here	figuratively	Today Cottle travels no more . He 's " had it <b>up</b> <b>to</b> <b>here</b> " with circuses -- mainly because of all the red-tape and paper work . " The real thorn in my side was the local authorities , " he said . 
138041	up to here	figuratively	. Enough enough 's enough 's enough Enough enough 's enough 's enough I 'm <b>up</b> <b>to</b> <b>here</b> with all your stuff Hey Dad...What 'll happen now sir ? Hey Dad...Can we live without her ? 
138603	up to here	figuratively	Here 's an essay I am most definitely going to do , even if it risks offending a friend . It 's about why we should n't need to be told what we 're supposed to enjoy reading - I 've had it <b>up</b> <b>to</b> <b>here</b> with all this lit-crit shit . If I like reading science fiction , I should n't have to take any flak over it not being ' real writing ' . 
139360	up to here	figuratively	" exclaimed a shattered Des . " I 've had it <b>up</b> <b>to</b> <b>here</b> with you , Doug ! ! 
139623	up to here	figuratively	I am about to go into town and cancel the $ 4,000 transfer I made via Western Union . I have had it <b>up</b> <b>to</b> <b>here</b> with Western Union : the whole thing seems to be more trouble than it is worth . Besides , as you have miraculously been able to conjure up almost $ 5 million extra to send to me , there is obviously no longer any need for me to send the $ 4,000 to Mr Ikenwe . 
150123	up to here	figuratively	rs time , along with perhaps The Streets , long after the Darkness , Scissor Sisters et al have been forgotten . I 've also had it <b>up</b> <b>to</b> <b>here</b> with all the tabloid hysteria about Pete and his drugs , like he 's the first musician ever to have a habit . The man 's just being honest . 
166333	up to here	figuratively	Tattoos : Telltales and Terrible : Terrible Twins Shop Description : Allys had it <b>up</b> <b>to</b> <b>here</b> . She was quite prepared to give her long-lost uncle and his family the benefit of the doubt:but that was before she met them . 
9036	up to here	literally	The thirteen mile trip takes about the same number of hours . This was our third cruise up the Rochdale and we have come <b>up</b> <b>to</b> <b>here</b> on each occasion . Another " must " for us was to visit the Bird I'th Hand pub , close to last lock , for a meal . 
33407	up to here	literally	Initially when he wrote it , he wanted it to be a nude scene and he brought up a very good point . He said he was tired of these scenes where you see married couples with sheets <b>up</b> <b>to</b> <b>here</b> [ points to her neck ] ; he said , ' I do n't buy it , I do n't believe it ' . I said , ' I hear you , I know absolutely what you mean . 
38801	up to here	literally	THURISAZ Thurisaz indicates the presence of new options opening before you . However , it is advised to stop in front of the gate before crossing it , to look at the road that led you <b>up</b> <b>to</b> <b>here</b> . This Rune points toward the need of not acting yet , but to examine past experiences and circumstances before continuing towards success . 
56854	up to here	literally	I guess what I 'm saying is that there are two different pictures , and maybe that 's the way it should be because in some situations , certainly , you want to teach it from an experimental hands-on approach and then move from this area [ answer oriented ] into this area [ creative ] . Once you get <b>up</b> <b>to</b> <b>here</b> [ creative ] then you 're free . It 's not divorced [ from the algorithmic ] but it 's kind of like a quantum jump , and then you jump right back down again . 
79119	up to here	literally	" Look í‰äóî those lilac lines are the metals í‰äóî and there 's the station done in brown wallflowers . The laburnum is the train , and there are the signal-boxes , and the road <b>up</b> <b>to</b> <b>here</b> í‰äóî and those fat red daisies are us three waving to the old gentleman í‰äóî that 's him , the pansy in the laburnum train . " " And there 's ' Three Chimneys ' done in the purple primroses , " said Phyllis . 
88697	up to here	literally	Refreshments with the GROHE faucet line í‰äóìTensoí‰äóì are there for the art director to keep cool . The name , deriving from í‰äóìtensioní‰äóì , tells what the GROHE designers are <b>up</b> <b>to</b> <b>here</b> : the straight faucet body with the arc-shaped handle and the spout running parallel to it form an exciting union . Besides the brilliant optics , with GROHE products acoustics do matter . 
97456	up to here	literally	The reason for this is beyond me , as the road is of no better or worse standard than previous sections . Ironically , the local drivers who have been doing 40 mph <b>up</b> <b>to</b> <b>here</b> will now slow down to 30 . We have a few more local turnings and pedestrian crossings before descending to the roundabout at Oadby racecourse where we meet the A6 . 
103210	up to here	literally	The surrounding headland is awesome and The Needles look so small from here . Buses run from Alum Bay Pleasure Park below <b>up</b> <b>to</b> <b>here</b> at regular intervals or it is a nice walk up . Sitting upstairs in an open top bus snaking up the cliff road is an experience in itself . 
120933	up to here	literally	No , my men exuded an air of heroism ! You could smell the intoxicating air of the battlefield , lances , spears , great white , high-crested helmets , greaves <b>up</b> <b>to</b> <b>here</b> indicating his knees , weighty headgear and hearts ? Hearts like the solid seven- oxskined shields ! 
131131	up to here	literally	It was so hot the melon slices we brought along were very welcome . Above - the view down to Chapel Porth : The footpath can be seen top left Below - from the same place , looking towards Wheal Coates The path <b>up</b> <b>to</b> <b>here</b> was very rough and Honey was very slow as she was picking her way along . She welcomed the stop . 
138690	up to here	literally	Stretches of the sequence can be referred as [ x:y ] , meaning " everything from index x to just before index y " . One of the two indexes can be left blank to give the logical result ( everything <b>up</b> <b>to</b> <b>here</b> , everything from here ) . You can change a list but you ca n't change a string : it 's immutable . 
149364	up to here	literally	Love to all , Your affec. son Cecil Back to top CMS to Bob ; Thursday , Jan. 13th . 1916 B.E.F. Dear Bob , I have had a very interesting journey <b>up</b> <b>to</b> <b>here</b> , about 8 miles from the firing line . The French tramway system is most amusing . 
155986	up to here	literally	60 metres on I was getting close to thirds . The passage had stayed more or less the same <b>up</b> <b>to</b> <b>here</b> - about 1 metre high , 2 metres wide as far as I could tell ( visibility was typically about two feet , four feet in the good patches ) . Now a particularly big silt bank seemed to fill the passage , heaped up on the left side ; there looked to be a fairly narrow gap over the top . 
23502	bend over backwards	figuratively	He is in command of the Egyptian navy . In his inscription of a statue of him , he <b>bends</b> <b>over</b> <b>backwards</b> to compliment Cambyses . This is because he respects Udjahorresne 's god and gives money to his temple .
23604	bend over backwards	figuratively	First though , a brief aside on the claim that religion has some special expertise to offer us on moral questions . This is often blithely accepted even by the nonreligious , presumably in the course of a civilized " <b>bending</b> <b>over</b> <b>backwards</b> " to concede the best point your opponent has to offer - however weak that best point may be . The question , " What is right and what is wrong ?
27402	bend over backwards	figuratively	Billy Fen T S Eliot Lane Lower Wymsey . The Editor and staff of the Wymsey Chronicle frequently <b>bend</b> <b>over</b> <b>backwards</b> to ensure that all aspects of local opinion is represented in the Letters Page , naturally we do not agree with much that is presented here . To be honest much of what you read here drives us to distraction but that 's free speech for you .
77586	bend over backwards	figuratively	Certainly is n't Davis or Fox , the two most clearly centre-Right figures . They 've both been <b>bending</b> <b>over</b> <b>backwards</b> to appear non-ideological . Now , I hate ideology and I dream of ever being truly freed from its grip , but it strikes me that Ken is perhaps the most ideological of all the candidates , if we take the word 's proper meaning .
124370	bend over backwards	figuratively	Lucy Smith , near Peterborough Skiing : There 's till time to join the cold rush Published : 01 April 2006 This year 's heavy snowfalls have seen Europe 's ski season stretch well into April . And while West is best , resorts in the East are <b>bending</b> <b>over</b> <b>backwards</b> to accommodate British needs . Hamish McRae reports Saas-Fee : The perfect place to take children skiing Published : 25 March 2006 Leslie Mello was born and brought up in Massachusetts .
52128	bend over backwards	literally	Luke shoots in any direction to instantly dispatch a foe . This is quite comical as an enemy could be approaching from behind and Luke can <b>bend</b> <b>over</b> <b>backwards</b> and shoot , or shoot behind his head . The same button doubles up for punch if the colt runs out of ammo , or to kick objects if his weapon is jammed .
